00030400  BC00390300        mov esp,0x33900
00030405  0F0105243D0300    sgdt [dword 0x33d24]
0003040C  E87C000000        call 0x3048d
00030411  0F0115243D0300    lgdt [dword 0x33d24]
00030418  0F011D00390300    lidt [dword 0x33900]
0003041F  EA260403000800    jmp 0x8:0x30426
00030426  0F0B              ud2
00030428  EA000000004000    jmp 0x40:0x0
0003042F  F4                hlt
00030430  6AFF              push byte -0x1
00030432  6A00              push byte +0x0
00030434  EB4E              jmp short 0x30484
00030436  6AFF              push byte -0x1
00030438  6A01              push byte +0x1
0003043A  EB48              jmp short 0x30484
0003043C  6AFF              push byte -0x1
0003043E  6A02              push byte +0x2
00030440  EB42              jmp short 0x30484
00030442  6AFF              push byte -0x1
00030444  6A03              push byte +0x3
00030446  EB3C              jmp short 0x30484
00030448  6AFF              push byte -0x1
0003044A  6A04              push byte +0x4
0003044C  EB36              jmp short 0x30484
0003044E  6AFF              push byte -0x1
00030450  6A05              push byte +0x5
00030452  EB30              jmp short 0x30484
00030454  6AFF              push byte -0x1
00030456  6A06              push byte +0x6
00030458  EB2A              jmp short 0x30484
0003045A  6AFF              push byte -0x1
0003045C  6A07              push byte +0x7
0003045E  EB24              jmp short 0x30484
00030460  6A08              push byte +0x8
00030462  EB20              jmp short 0x30484
00030464  6AFF              push byte -0x1
00030466  6A09              push byte +0x9
00030468  EB1A              jmp short 0x30484
0003046A  6A0A              push byte +0xa
0003046C  EB16              jmp short 0x30484
0003046E  6A0B              push byte +0xb
00030470  EB12              jmp short 0x30484
00030472  6A0C              push byte +0xc
00030474  EB0E              jmp short 0x30484
00030476  6A0D              push byte +0xd
00030478  EB0A              jmp short 0x30484
0003047A  6A0E              push byte +0xe
0003047C  EB06              jmp short 0x30484
0003047E  6AFF              push byte -0x1
00030480  6A10              push byte +0x10
00030482  EB00              jmp short 0x30484
00030484  E8BE030000        call 0x30847
00030489  83C408            add esp,byte +0x8
0003048C  F4                hlt
0003048D  F30F1EFB          rep hint_nop55 ebx
00030491  55                push ebp
00030492  89E5              mov ebp,esp
00030494  53                push ebx
00030495  83EC14            sub esp,byte +0x14
00030498  E8B7000000        call 0x30554
0003049D  81C3632B0000      add ebx,0x2b63
000304A3  83EC0C            sub esp,byte +0xc
000304A6  8D8300E0FFFF      lea eax,[ebx-0x2000]
000304AC  50                push eax
000304AD  E8BA2B0000        call 0x3306c
000304B2  83C410            add esp,byte +0x10
000304B5  C7C0243D0300      mov eax,0x33d24
000304BB  0FB700            movzx eax,word [eax]
000304BE  0FB7C0            movzx eax,ax
000304C1  8D5001            lea edx,[eax+0x1]
000304C4  C7C0243D0300      mov eax,0x33d24
000304CA  8D4002            lea eax,[eax+0x2]
000304CD  8B00              mov eax,[eax]
000304CF  83EC04            sub esp,byte +0x4
000304D2  52                push edx
000304D3  50                push eax
000304D4  C7C020390300      mov eax,0x33920
000304DA  50                push eax
000304DB  E850050000        call 0x30a30
000304E0  83C410            add esp,byte +0x10
000304E3  C7C0243D0300      mov eax,0x33d24
000304E9  8945F4            mov [ebp-0xc],eax
000304EC  C7C0243D0300      mov eax,0x33d24
000304F2  8D4002            lea eax,[eax+0x2]
000304F5  8945F0            mov [ebp-0x10],eax
000304F8  8B45F4            mov eax,[ebp-0xc]
000304FB  66C700FF03        mov word [eax],0x3ff
00030500  C7C020390300      mov eax,0x33920
00030506  89C2              mov edx,eax
00030508  8B45F0            mov eax,[ebp-0x10]
0003050B  8910              mov [eax],edx
0003050D  C7C000390300      mov eax,0x33900
00030513  8945EC            mov [ebp-0x14],eax
00030516  C7C000390300      mov eax,0x33900
0003051C  8D4002            lea eax,[eax+0x2]
0003051F  8945E8            mov [ebp-0x18],eax
00030522  8B45EC            mov eax,[ebp-0x14]
00030525  66C700FF07        mov word [eax],0x7ff
0003052A  C7C0403D0300      mov eax,0x33d40
00030530  89C2              mov edx,eax
00030532  8B45E8            mov eax,[ebp-0x18]
00030535  8910              mov [eax],edx
00030537  E8E3000000        call 0x3061f
0003053C  83EC0C            sub esp,byte +0xc
0003053F  8D832EE0FFFF      lea eax,[ebx-0x1fd2]
00030545  50                push eax
00030546  E8212B0000        call 0x3306c
0003054B  83C410            add esp,byte +0x10
0003054E  90                nop
0003054F  8B5DFC            mov ebx,[ebp-0x4]
00030552  C9                leave
00030553  C3                ret
00030554  8B1C24            mov ebx,[esp]
00030557  C3                ret
00030558  F30F1EFB          rep hint_nop55 ebx
0003055C  55                push ebp
0003055D  89E5              mov ebp,esp
0003055F  53                push ebx
00030560  83EC04            sub esp,byte +0x4
00030563  E8ECFFFFFF        call 0x30554
00030568  81C3982A0000      add ebx,0x2a98
0003056E  83EC08            sub esp,byte +0x8
00030571  6A11              push byte +0x11
00030573  6A20              push byte +0x20
00030575  E86F2B0000        call 0x330e9
0003057A  83C410            add esp,byte +0x10
0003057D  83EC08            sub esp,byte +0x8
00030580  6A11              push byte +0x11
00030582  68A0000000        push dword 0xa0
00030587  E85D2B0000        call 0x330e9
0003058C  83C410            add esp,byte +0x10
0003058F  83EC08            sub esp,byte +0x8
00030592  6A20              push byte +0x20
00030594  6A21              push byte +0x21
00030596  E84E2B0000        call 0x330e9
0003059B  83C410            add esp,byte +0x10
0003059E  83EC08            sub esp,byte +0x8
000305A1  6A28              push byte +0x28
000305A3  68A1000000        push dword 0xa1
000305A8  E83C2B0000        call 0x330e9
000305AD  83C410            add esp,byte +0x10
000305B0  83EC08            sub esp,byte +0x8
000305B3  6A04              push byte +0x4
000305B5  6A21              push byte +0x21
000305B7  E82D2B0000        call 0x330e9
000305BC  83C410            add esp,byte +0x10
000305BF  83EC08            sub esp,byte +0x8
000305C2  6A02              push byte +0x2
000305C4  68A1000000        push dword 0xa1
000305C9  E81B2B0000        call 0x330e9
000305CE  83C410            add esp,byte +0x10
000305D1  83EC08            sub esp,byte +0x8
000305D4  6A01              push byte +0x1
000305D6  6A21              push byte +0x21
000305D8  E80C2B0000        call 0x330e9
000305DD  83C410            add esp,byte +0x10
000305E0  83EC08            sub esp,byte +0x8
000305E3  6A01              push byte +0x1
000305E5  68A1000000        push dword 0xa1
000305EA  E8FA2A0000        call 0x330e9
000305EF  83C410            add esp,byte +0x10
000305F2  83EC08            sub esp,byte +0x8
000305F5  68FF000000        push dword 0xff
000305FA  6A21              push byte +0x21
000305FC  E8E82A0000        call 0x330e9
00030601  83C410            add esp,byte +0x10
00030604  83EC08            sub esp,byte +0x8
00030607  68FF000000        push dword 0xff
0003060C  68A1000000        push dword 0xa1
00030611  E8D32A0000        call 0x330e9
00030616  83C410            add esp,byte +0x10
00030619  90                nop
0003061A  8B5DFC            mov ebx,[ebp-0x4]
0003061D  C9                leave
0003061E  C3                ret
0003061F  F30F1EFB          rep hint_nop55 ebx
00030623  55                push ebp
00030624  89E5              mov ebp,esp
00030626  53                push ebx
00030627  83EC04            sub esp,byte +0x4
0003062A  E825FFFFFF        call 0x30554
0003062F  81C3D1290000      add ebx,0x29d1
00030635  E81EFFFFFF        call 0x30558
0003063A  6A00              push byte +0x0
0003063C  C7C030040300      mov eax,0x30430
00030642  50                push eax
00030643  688E000000        push dword 0x8e
00030648  6A00              push byte +0x0
0003064A  E871010000        call 0x307c0
0003064F  83C410            add esp,byte +0x10
00030652  6A00              push byte +0x0
00030654  C7C036040300      mov eax,0x30436
0003065A  50                push eax
0003065B  688E000000        push dword 0x8e
00030660  6A01              push byte +0x1
00030662  E859010000        call 0x307c0
00030667  83C410            add esp,byte +0x10
0003066A  6A00              push byte +0x0
0003066C  C7C03C040300      mov eax,0x3043c
00030672  50                push eax
00030673  688E000000        push dword 0x8e
00030678  6A02              push byte +0x2
0003067A  E841010000        call 0x307c0
0003067F  83C410            add esp,byte +0x10
00030682  6A00              push byte +0x0
00030684  C7C042040300      mov eax,0x30442
0003068A  50                push eax
0003068B  688E000000        push dword 0x8e
00030690  6A03              push byte +0x3
00030692  E829010000        call 0x307c0
00030697  83C410            add esp,byte +0x10
0003069A  6A00              push byte +0x0
0003069C  C7C048040300      mov eax,0x30448
000306A2  50                push eax
000306A3  688E000000        push dword 0x8e
000306A8  6A04              push byte +0x4
000306AA  E811010000        call 0x307c0
000306AF  83C410            add esp,byte +0x10
000306B2  6A00              push byte +0x0
000306B4  C7C04E040300      mov eax,0x3044e
000306BA  50                push eax
000306BB  688E000000        push dword 0x8e
000306C0  6A05              push byte +0x5
000306C2  E8F9000000        call 0x307c0
000306C7  83C410            add esp,byte +0x10
000306CA  6A00              push byte +0x0
000306CC  C7C054040300      mov eax,0x30454
000306D2  50                push eax
000306D3  688E000000        push dword 0x8e
000306D8  6A06              push byte +0x6
000306DA  E8E1000000        call 0x307c0
000306DF  83C410            add esp,byte +0x10
000306E2  6A00              push byte +0x0
000306E4  C7C05A040300      mov eax,0x3045a
000306EA  50                push eax
000306EB  688E000000        push dword 0x8e
000306F0  6A07              push byte +0x7
000306F2  E8C9000000        call 0x307c0
000306F7  83C410            add esp,byte +0x10
000306FA  6A00              push byte +0x0
000306FC  C7C060040300      mov eax,0x30460
00030702  50                push eax
00030703  688E000000        push dword 0x8e
00030708  6A08              push byte +0x8
0003070A  E8B1000000        call 0x307c0
0003070F  83C410            add esp,byte +0x10
00030712  6A00              push byte +0x0
00030714  C7C064040300      mov eax,0x30464
0003071A  50                push eax
0003071B  688E000000        push dword 0x8e
00030720  6A09              push byte +0x9
00030722  E899000000        call 0x307c0
00030727  83C410            add esp,byte +0x10
0003072A  6A00              push byte +0x0
0003072C  C7C06A040300      mov eax,0x3046a
00030732  50                push eax
00030733  688E000000        push dword 0x8e
00030738  6A0A              push byte +0xa
0003073A  E881000000        call 0x307c0
0003073F  83C410            add esp,byte +0x10
00030742  6A00              push byte +0x0
00030744  C7C06E040300      mov eax,0x3046e
0003074A  50                push eax
0003074B  688E000000        push dword 0x8e
00030750  6A0B              push byte +0xb
00030752  E869000000        call 0x307c0
00030757  83C410            add esp,byte +0x10
0003075A  6A00              push byte +0x0
0003075C  C7C072040300      mov eax,0x30472
00030762  50                push eax
00030763  688E000000        push dword 0x8e
00030768  6A0C              push byte +0xc
0003076A  E851000000        call 0x307c0
0003076F  83C410            add esp,byte +0x10
00030772  6A00              push byte +0x0
00030774  C7C076040300      mov eax,0x30476
0003077A  50                push eax
0003077B  688E000000        push dword 0x8e
00030780  6A0D              push byte +0xd
00030782  E839000000        call 0x307c0
00030787  83C410            add esp,byte +0x10
0003078A  6A00              push byte +0x0
0003078C  C7C07A040300      mov eax,0x3047a
00030792  50                push eax
00030793  688E000000        push dword 0x8e
00030798  6A0E              push byte +0xe
0003079A  E821000000        call 0x307c0
0003079F  83C410            add esp,byte +0x10
000307A2  6A00              push byte +0x0
000307A4  C7C07E040300      mov eax,0x3047e
000307AA  50                push eax
000307AB  688E000000        push dword 0x8e
000307B0  6A10              push byte +0x10
000307B2  E809000000        call 0x307c0
000307B7  83C410            add esp,byte +0x10
000307BA  90                nop
000307BB  8B5DFC            mov ebx,[ebp-0x4]
000307BE  C9                leave
000307BF  C3                ret
000307C0  F30F1EFB          rep hint_nop55 ebx
000307C4  55                push ebp
000307C5  89E5              mov ebp,esp
000307C7  53                push ebx
000307C8  83EC1C            sub esp,byte +0x1c
000307CB  E871010000        call 0x30941
000307D0  0530280000        add eax,0x2830
000307D5  8B5D08            mov ebx,[ebp+0x8]
000307D8  8B4D0C            mov ecx,[ebp+0xc]
000307DB  8B5514            mov edx,[ebp+0x14]
000307DE  885DE8            mov [ebp-0x18],bl
000307E1  884DE4            mov [ebp-0x1c],cl
000307E4  8855E0            mov [ebp-0x20],dl
000307E7  0FB655E8          movzx edx,byte [ebp-0x18]
000307EB  C1E203            shl edx,byte 0x3
000307EE  C7C0403D0300      mov eax,0x33d40
000307F4  01D0              add eax,edx
000307F6  8945F8            mov [ebp-0x8],eax
000307F9  8B4510            mov eax,[ebp+0x10]
000307FC  8945F4            mov [ebp-0xc],eax
000307FF  8B45F4            mov eax,[ebp-0xc]
00030802  89C2              mov edx,eax
00030804  8B45F8            mov eax,[ebp-0x8]
00030807  668910            mov [eax],dx
0003080A  8B45F8            mov eax,[ebp-0x8]
0003080D  66C740020800      mov word [eax+0x2],0x8
00030813  8B45F8            mov eax,[ebp-0x8]
00030816  C6400400          mov byte [eax+0x4],0x0
0003081A  0FB645E0          movzx eax,byte [ebp-0x20]
0003081E  C1E005            shl eax,byte 0x5
00030821  89C2              mov edx,eax
00030823  0FB645E4          movzx eax,byte [ebp-0x1c]
00030827  09D0              or eax,edx
00030829  89C2              mov edx,eax
0003082B  8B45F8            mov eax,[ebp-0x8]
0003082E  885005            mov [eax+0x5],dl
00030831  8B45F4            mov eax,[ebp-0xc]
00030834  C1E810            shr eax,byte 0x10
00030837  89C2              mov edx,eax
00030839  8B45F8            mov eax,[ebp-0x8]
0003083C  66895006          mov [eax+0x6],dx
00030840  90                nop
00030841  83C41C            add esp,byte +0x1c
00030844  5B                pop ebx
00030845  5D                pop ebp
00030846  C3                ret
00030847  F30F1EFB          rep hint_nop55 ebx
0003084B  55                push ebp
0003084C  89E5              mov ebp,esp
0003084E  57                push edi
0003084F  56                push esi
00030850  53                push ebx
00030851  83EC6C            sub esp,byte +0x6c
00030854  E8FBFCFFFF        call 0x30554
00030859  81C3A7270000      add ebx,0x27a7
0003085F  C745E074000000    mov dword [ebp-0x20],0x74
00030866  8D4594            lea eax,[ebp-0x6c]
00030869  8D9320000000      lea edx,[ebx+0x20]
0003086F  B913000000        mov ecx,0x13
00030874  89C7              mov edi,eax
00030876  89D6              mov esi,edx
00030878  F3A5              rep movsd
0003087A  C7C0203D0300      mov eax,0x33d20
00030880  C70000000000      mov dword [eax],0x0
00030886  C745E400000000    mov dword [ebp-0x1c],0x0
0003088D  EB16              jmp short 0x308a5
0003088F  83EC0C            sub esp,byte +0xc
00030892  8D8332E2FFFF      lea eax,[ebx-0x1dce]
00030898  50                push eax
00030899  E8CE270000        call 0x3306c
0003089E  83C410            add esp,byte +0x10
000308A1  8345E401          add dword [ebp-0x1c],byte +0x1
000308A5  817DE48F010000    cmp dword [ebp-0x1c],0x18f
000308AC  7EE1              jng 0x3088f
000308AE  C7C0203D0300      mov eax,0x33d20
000308B4  C70000000000      mov dword [eax],0x0
000308BA  83EC08            sub esp,byte +0x8
000308BD  FF75E0            push dword [ebp-0x20]
000308C0  8D8334E2FFFF      lea eax,[ebx-0x1dcc]
000308C6  50                push eax
000308C7  E8DE270000        call 0x330aa
000308CC  83C410            add esp,byte +0x10
000308CF  8B4508            mov eax,[ebp+0x8]
000308D2  8B448594          mov eax,[ebp+eax*4-0x6c]
000308D6  83EC08            sub esp,byte +0x8
000308D9  FF75E0            push dword [ebp-0x20]
000308DC  50                push eax
000308DD  E8C8270000        call 0x330aa
000308E2  83C410            add esp,byte +0x10
000308E5  83EC08            sub esp,byte +0x8
000308E8  FF75E0            push dword [ebp-0x20]
000308EB  8D8344E2FFFF      lea eax,[ebx-0x1dbc]
000308F1  50                push eax
000308F2  E8B3270000        call 0x330aa
000308F7  83C410            add esp,byte +0x10
000308FA  83EC08            sub esp,byte +0x8
000308FD  FF75E0            push dword [ebp-0x20]
00030900  8D8347E2FFFF      lea eax,[ebx-0x1db9]
00030906  50                push eax
00030907  E89E270000        call 0x330aa
0003090C  83C410            add esp,byte +0x10
0003090F  837D0CFF          cmp dword [ebp+0xc],byte -0x1
00030913  7423              jz 0x30938
00030915  83EC08            sub esp,byte +0x8
00030918  FF75E0            push dword [ebp-0x20]
0003091B  8D834FE2FFFF      lea eax,[ebx-0x1db1]
00030921  50                push eax
00030922  E883270000        call 0x330aa
00030927  83C410            add esp,byte +0x10
0003092A  83EC0C            sub esp,byte +0xc
0003092D  FF750C            push dword [ebp+0xc]
00030930  E8B9000000        call 0x309ee
00030935  83C410            add esp,byte +0x10
00030938  90                nop
00030939  8D65F4            lea esp,[ebp-0xc]
0003093C  5B                pop ebx
0003093D  5E                pop esi
0003093E  5F                pop edi
0003093F  5D                pop ebp
00030940  C3                ret
00030941  8B0424            mov eax,[esp]
00030944  C3                ret
00030945  F30F1EFB          rep hint_nop55 ebx
00030949  55                push ebp
0003094A  89E5              mov ebp,esp
0003094C  83EC10            sub esp,byte +0x10
0003094F  E8EDFFFFFF        call 0x30941
00030954  05AC260000        add eax,0x26ac
00030959  8B4508            mov eax,[ebp+0x8]
0003095C  8945FC            mov [ebp-0x4],eax
0003095F  C745F400000000    mov dword [ebp-0xc],0x0
00030966  8B45FC            mov eax,[ebp-0x4]
00030969  8D5001            lea edx,[eax+0x1]
0003096C  8955FC            mov [ebp-0x4],edx
0003096F  C60030            mov byte [eax],0x30
00030972  8B45FC            mov eax,[ebp-0x4]
00030975  8D5001            lea edx,[eax+0x1]
00030978  8955FC            mov [ebp-0x4],edx
0003097B  C60078            mov byte [eax],0x78
0003097E  837D0C00          cmp dword [ebp+0xc],byte +0x0
00030982  750E              jnz 0x30992
00030984  8B45FC            mov eax,[ebp-0x4]
00030987  8D5001            lea edx,[eax+0x1]
0003098A  8955FC            mov [ebp-0x4],edx
0003098D  C60030            mov byte [eax],0x30
00030990  EB51              jmp short 0x309e3
00030992  C745F81C000000    mov dword [ebp-0x8],0x1c
00030999  EB42              jmp short 0x309dd
0003099B  8B45F8            mov eax,[ebp-0x8]
0003099E  8B550C            mov edx,[ebp+0xc]
000309A1  89C1              mov ecx,eax
000309A3  D3FA              sar edx,cl
000309A5  89D0              mov eax,edx
000309A7  83E00F            and eax,byte +0xf
000309AA  8845F3            mov [ebp-0xd],al
000309AD  837DF400          cmp dword [ebp-0xc],byte +0x0
000309B1  7506              jnz 0x309b9
000309B3  807DF300          cmp byte [ebp-0xd],0x0
000309B7  7E20              jng 0x309d9
000309B9  C745F401000000    mov dword [ebp-0xc],0x1
000309C0  0FB645F3          movzx eax,byte [ebp-0xd]
000309C4  83C030            add eax,byte +0x30
000309C7  8845F3            mov [ebp-0xd],al
000309CA  8B45FC            mov eax,[ebp-0x4]
000309CD  8D5001            lea edx,[eax+0x1]
000309D0  8955FC            mov [ebp-0x4],edx
000309D3  0FB655F3          movzx edx,byte [ebp-0xd]
000309D7  8810              mov [eax],dl
000309D9  836DF804          sub dword [ebp-0x8],byte +0x4
000309DD  837DF800          cmp dword [ebp-0x8],byte +0x0
000309E1  79B8              jns 0x3099b
000309E3  8B45FC            mov eax,[ebp-0x4]
000309E6  C60000            mov byte [eax],0x0
000309E9  8B4508            mov eax,[ebp+0x8]
000309EC  C9                leave
000309ED  C3                ret
000309EE  F30F1EFB          rep hint_nop55 ebx
000309F2  55                push ebp
000309F3  89E5              mov ebp,esp
000309F5  53                push ebx
000309F6  83EC14            sub esp,byte +0x14
000309F9  E856FBFFFF        call 0x30554
000309FE  81C302260000      add ebx,0x2602
00030A04  FF7508            push dword [ebp+0x8]
00030A07  8D45E8            lea eax,[ebp-0x18]
00030A0A  50                push eax
00030A0B  E835FFFFFF        call 0x30945
00030A10  83C408            add esp,byte +0x8
00030A13  83EC0C            sub esp,byte +0xc
00030A16  8D45E8            lea eax,[ebp-0x18]
00030A19  50                push eax
00030A1A  E84D260000        call 0x3306c
00030A1F  83C410            add esp,byte +0x10
00030A22  90                nop
00030A23  8B5DFC            mov ebx,[ebp-0x4]
00030A26  C9                leave
00030A27  C3                ret
00030A28  6690              xchg ax,ax
00030A2A  6690              xchg ax,ax
00030A2C  6690              xchg ax,ax
00030A2E  6690              xchg ax,ax
00030A30  55                push ebp
00030A31  89E5              mov ebp,esp
00030A33  56                push esi
00030A34  57                push edi
00030A35  51                push ecx
00030A36  8B7D08            mov edi,[ebp+0x8]
00030A39  8B750C            mov esi,[ebp+0xc]
00030A3C  8B4D10            mov ecx,[ebp+0x10]
00030A3F  83F900            cmp ecx,byte +0x0
00030A42  740B              jz 0x30a4f
00030A44  3E8A06            mov al,[ds:esi]
00030A47  46                inc esi
00030A48  268807            mov [es:edi],al
00030A4B  47                inc edi
00030A4C  49                dec ecx
00030A4D  EBF0              jmp short 0x30a3f
00030A4F  8B4508            mov eax,[ebp+0x8]
00030A52  59                pop ecx
00030A53  5F                pop edi
00030A54  5E                pop esi
00030A55  89EC              mov esp,ebp
00030A57  5D                pop ebp
00030A58  C3                ret
00030A59  0000              add [eax],al
00030A5B  0000              add [eax],al
00030A5D  0000              add [eax],al
00030A5F  0000              add [eax],al
00030A61  0000              add [eax],al
00030A63  0000              add [eax],al
00030A65  0000              add [eax],al
00030A67  0000              add [eax],al
00030A69  0000              add [eax],al
00030A6B  0000              add [eax],al
00030A6D  0000              add [eax],al
00030A6F  0000              add [eax],al
00030A71  0000              add [eax],al
00030A73  0000              add [eax],al
00030A75  0000              add [eax],al
00030A77  0000              add [eax],al
00030A79  0000              add [eax],al
00030A7B  0000              add [eax],al
00030A7D  0000              add [eax],al
00030A7F  0000              add [eax],al
00030A81  0000              add [eax],al
00030A83  0000              add [eax],al
00030A85  0000              add [eax],al
00030A87  0000              add [eax],al
00030A89  0000              add [eax],al
00030A8B  0000              add [eax],al
00030A8D  0000              add [eax],al
00030A8F  0000              add [eax],al
00030A91  0000              add [eax],al
00030A93  0000              add [eax],al
00030A95  0000              add [eax],al
00030A97  0000              add [eax],al
00030A99  0000              add [eax],al
00030A9B  0000              add [eax],al
00030A9D  0000              add [eax],al
00030A9F  0000              add [eax],al
00030AA1  0000              add [eax],al
00030AA3  0000              add [eax],al
00030AA5  0000              add [eax],al
00030AA7  0000              add [eax],al
00030AA9  0000              add [eax],al
00030AAB  0000              add [eax],al
00030AAD  0000              add [eax],al
00030AAF  0000              add [eax],al
00030AB1  0000              add [eax],al
00030AB3  0000              add [eax],al
00030AB5  0000              add [eax],al
00030AB7  0000              add [eax],al
00030AB9  0000              add [eax],al
00030ABB  0000              add [eax],al
00030ABD  0000              add [eax],al
00030ABF  0000              add [eax],al
00030AC1  0000              add [eax],al
00030AC3  0000              add [eax],al
00030AC5  0000              add [eax],al
00030AC7  0000              add [eax],al
00030AC9  0000              add [eax],al
00030ACB  0000              add [eax],al
00030ACD  0000              add [eax],al
00030ACF  0000              add [eax],al
00030AD1  0000              add [eax],al
00030AD3  0000              add [eax],al
00030AD5  0000              add [eax],al
00030AD7  0000              add [eax],al
00030AD9  0000              add [eax],al
00030ADB  0000              add [eax],al
00030ADD  0000              add [eax],al
00030ADF  0000              add [eax],al
00030AE1  0000              add [eax],al
00030AE3  0000              add [eax],al
00030AE5  0000              add [eax],al
00030AE7  0000              add [eax],al
00030AE9  0000              add [eax],al
00030AEB  0000              add [eax],al
00030AED  0000              add [eax],al
00030AEF  0000              add [eax],al
00030AF1  0000              add [eax],al
00030AF3  0000              add [eax],al
00030AF5  0000              add [eax],al
00030AF7  0000              add [eax],al
00030AF9  0000              add [eax],al
00030AFB  0000              add [eax],al
00030AFD  0000              add [eax],al
00030AFF  0000              add [eax],al
00030B01  0000              add [eax],al
00030B03  0000              add [eax],al
00030B05  0000              add [eax],al
00030B07  0000              add [eax],al
00030B09  0000              add [eax],al
00030B0B  0000              add [eax],al
00030B0D  0000              add [eax],al
00030B0F  0000              add [eax],al
00030B11  0000              add [eax],al
00030B13  0000              add [eax],al
00030B15  0000              add [eax],al
00030B17  0000              add [eax],al
00030B19  0000              add [eax],al
00030B1B  0000              add [eax],al
00030B1D  0000              add [eax],al
00030B1F  0000              add [eax],al
00030B21  0000              add [eax],al
00030B23  0000              add [eax],al
00030B25  0000              add [eax],al
00030B27  0000              add [eax],al
00030B29  0000              add [eax],al
00030B2B  0000              add [eax],al
00030B2D  0000              add [eax],al
00030B2F  0000              add [eax],al
00030B31  0000              add [eax],al
00030B33  0000              add [eax],al
00030B35  0000              add [eax],al
00030B37  0000              add [eax],al
00030B39  0000              add [eax],al
00030B3B  0000              add [eax],al
00030B3D  0000              add [eax],al
00030B3F  0000              add [eax],al
00030B41  0000              add [eax],al
00030B43  0000              add [eax],al
00030B45  0000              add [eax],al
00030B47  0000              add [eax],al
00030B49  0000              add [eax],al
00030B4B  0000              add [eax],al
00030B4D  0000              add [eax],al
00030B4F  0000              add [eax],al
00030B51  0000              add [eax],al
00030B53  0000              add [eax],al
00030B55  0000              add [eax],al
00030B57  0000              add [eax],al
00030B59  0000              add [eax],al
00030B5B  0000              add [eax],al
00030B5D  0000              add [eax],al
00030B5F  0000              add [eax],al
00030B61  0000              add [eax],al
00030B63  0000              add [eax],al
00030B65  0000              add [eax],al
00030B67  0000              add [eax],al
00030B69  0000              add [eax],al
00030B6B  0000              add [eax],al
00030B6D  0000              add [eax],al
00030B6F  0000              add [eax],al
00030B71  0000              add [eax],al
00030B73  0000              add [eax],al
00030B75  0000              add [eax],al
00030B77  0000              add [eax],al
00030B79  0000              add [eax],al
00030B7B  0000              add [eax],al
00030B7D  0000              add [eax],al
00030B7F  0000              add [eax],al
00030B81  0000              add [eax],al
00030B83  0000              add [eax],al
00030B85  0000              add [eax],al
00030B87  0000              add [eax],al
00030B89  0000              add [eax],al
00030B8B  0000              add [eax],al
00030B8D  0000              add [eax],al
00030B8F  0000              add [eax],al
00030B91  0000              add [eax],al
00030B93  0000              add [eax],al
00030B95  0000              add [eax],al
00030B97  0000              add [eax],al
00030B99  0000              add [eax],al
00030B9B  0000              add [eax],al
00030B9D  0000              add [eax],al
00030B9F  0000              add [eax],al
00030BA1  0000              add [eax],al
00030BA3  0000              add [eax],al
00030BA5  0000              add [eax],al
00030BA7  0000              add [eax],al
00030BA9  0000              add [eax],al
00030BAB  0000              add [eax],al
00030BAD  0000              add [eax],al
00030BAF  0000              add [eax],al
00030BB1  0000              add [eax],al
00030BB3  0000              add [eax],al
00030BB5  0000              add [eax],al
00030BB7  0000              add [eax],al
00030BB9  0000              add [eax],al
00030BBB  0000              add [eax],al
00030BBD  0000              add [eax],al
00030BBF  0000              add [eax],al
00030BC1  0000              add [eax],al
00030BC3  0000              add [eax],al
00030BC5  0000              add [eax],al
00030BC7  0000              add [eax],al
00030BC9  0000              add [eax],al
00030BCB  0000              add [eax],al
00030BCD  0000              add [eax],al
00030BCF  0000              add [eax],al
00030BD1  0000              add [eax],al
00030BD3  0000              add [eax],al
00030BD5  0000              add [eax],al
00030BD7  0000              add [eax],al
00030BD9  0000              add [eax],al
00030BDB  0000              add [eax],al
00030BDD  0000              add [eax],al
00030BDF  0000              add [eax],al
00030BE1  0000              add [eax],al
00030BE3  0000              add [eax],al
00030BE5  0000              add [eax],al
00030BE7  0000              add [eax],al
00030BE9  0000              add [eax],al
00030BEB  0000              add [eax],al
00030BED  0000              add [eax],al
00030BEF  0000              add [eax],al
00030BF1  0000              add [eax],al
00030BF3  0000              add [eax],al
00030BF5  0000              add [eax],al
00030BF7  0000              add [eax],al
00030BF9  0000              add [eax],al
00030BFB  0000              add [eax],al
00030BFD  0000              add [eax],al
00030BFF  0000              add [eax],al
00030C01  0000              add [eax],al
00030C03  0000              add [eax],al
00030C05  0000              add [eax],al
00030C07  0000              add [eax],al
00030C09  0000              add [eax],al
00030C0B  0000              add [eax],al
00030C0D  0000              add [eax],al
00030C0F  0000              add [eax],al
00030C11  0000              add [eax],al
00030C13  0000              add [eax],al
00030C15  0000              add [eax],al
00030C17  0000              add [eax],al
00030C19  0000              add [eax],al
00030C1B  0000              add [eax],al
00030C1D  0000              add [eax],al
00030C1F  0000              add [eax],al
00030C21  0000              add [eax],al
00030C23  0000              add [eax],al
00030C25  0000              add [eax],al
00030C27  0000              add [eax],al
00030C29  0000              add [eax],al
00030C2B  0000              add [eax],al
00030C2D  0000              add [eax],al
00030C2F  0000              add [eax],al
00030C31  0000              add [eax],al
00030C33  0000              add [eax],al
00030C35  0000              add [eax],al
00030C37  0000              add [eax],al
00030C39  0000              add [eax],al
00030C3B  0000              add [eax],al
00030C3D  0000              add [eax],al
00030C3F  0000              add [eax],al
00030C41  0000              add [eax],al
00030C43  0000              add [eax],al
00030C45  0000              add [eax],al
00030C47  0000              add [eax],al
00030C49  0000              add [eax],al
00030C4B  0000              add [eax],al
00030C4D  0000              add [eax],al
00030C4F  0000              add [eax],al
00030C51  0000              add [eax],al
00030C53  0000              add [eax],al
00030C55  0000              add [eax],al
00030C57  0000              add [eax],al
00030C59  0000              add [eax],al
00030C5B  0000              add [eax],al
00030C5D  0000              add [eax],al
00030C5F  0000              add [eax],al
00030C61  0000              add [eax],al
00030C63  0000              add [eax],al
00030C65  0000              add [eax],al
00030C67  0000              add [eax],al
00030C69  0000              add [eax],al
00030C6B  0000              add [eax],al
00030C6D  0000              add [eax],al
00030C6F  0000              add [eax],al
00030C71  0000              add [eax],al
00030C73  0000              add [eax],al
00030C75  0000              add [eax],al
00030C77  0000              add [eax],al
00030C79  0000              add [eax],al
00030C7B  0000              add [eax],al
00030C7D  0000              add [eax],al
00030C7F  0000              add [eax],al
00030C81  0000              add [eax],al
00030C83  0000              add [eax],al
00030C85  0000              add [eax],al
00030C87  0000              add [eax],al
00030C89  0000              add [eax],al
00030C8B  0000              add [eax],al
00030C8D  0000              add [eax],al
00030C8F  0000              add [eax],al
00030C91  0000              add [eax],al
00030C93  0000              add [eax],al
00030C95  0000              add [eax],al
00030C97  0000              add [eax],al
00030C99  0000              add [eax],al
00030C9B  0000              add [eax],al
00030C9D  0000              add [eax],al
00030C9F  0000              add [eax],al
00030CA1  0000              add [eax],al
00030CA3  0000              add [eax],al
00030CA5  0000              add [eax],al
00030CA7  0000              add [eax],al
00030CA9  0000              add [eax],al
00030CAB  0000              add [eax],al
00030CAD  0000              add [eax],al
00030CAF  0000              add [eax],al
00030CB1  0000              add [eax],al
00030CB3  0000              add [eax],al
00030CB5  0000              add [eax],al
00030CB7  0000              add [eax],al
00030CB9  0000              add [eax],al
00030CBB  0000              add [eax],al
00030CBD  0000              add [eax],al
00030CBF  0000              add [eax],al
00030CC1  0000              add [eax],al
00030CC3  0000              add [eax],al
00030CC5  0000              add [eax],al
00030CC7  0000              add [eax],al
00030CC9  0000              add [eax],al
00030CCB  0000              add [eax],al
00030CCD  0000              add [eax],al
00030CCF  0000              add [eax],al
00030CD1  0000              add [eax],al
00030CD3  0000              add [eax],al
00030CD5  0000              add [eax],al
00030CD7  0000              add [eax],al
00030CD9  0000              add [eax],al
00030CDB  0000              add [eax],al
00030CDD  0000              add [eax],al
00030CDF  0000              add [eax],al
00030CE1  0000              add [eax],al
00030CE3  0000              add [eax],al
00030CE5  0000              add [eax],al
00030CE7  0000              add [eax],al
00030CE9  0000              add [eax],al
00030CEB  0000              add [eax],al
00030CED  0000              add [eax],al
00030CEF  0000              add [eax],al
00030CF1  0000              add [eax],al
00030CF3  0000              add [eax],al
00030CF5  0000              add [eax],al
00030CF7  0000              add [eax],al
00030CF9  0000              add [eax],al
00030CFB  0000              add [eax],al
00030CFD  0000              add [eax],al
00030CFF  0000              add [eax],al
00030D01  0000              add [eax],al
00030D03  0000              add [eax],al
00030D05  0000              add [eax],al
00030D07  0000              add [eax],al
00030D09  0000              add [eax],al
00030D0B  0000              add [eax],al
00030D0D  0000              add [eax],al
00030D0F  0000              add [eax],al
00030D11  0000              add [eax],al
00030D13  0000              add [eax],al
00030D15  0000              add [eax],al
00030D17  0000              add [eax],al
00030D19  0000              add [eax],al
00030D1B  0000              add [eax],al
00030D1D  0000              add [eax],al
00030D1F  0000              add [eax],al
00030D21  0000              add [eax],al
00030D23  0000              add [eax],al
00030D25  0000              add [eax],al
00030D27  0000              add [eax],al
00030D29  0000              add [eax],al
00030D2B  0000              add [eax],al
00030D2D  0000              add [eax],al
00030D2F  0000              add [eax],al
00030D31  0000              add [eax],al
00030D33  0000              add [eax],al
00030D35  0000              add [eax],al
00030D37  0000              add [eax],al
00030D39  0000              add [eax],al
00030D3B  0000              add [eax],al
00030D3D  0000              add [eax],al
00030D3F  0000              add [eax],al
00030D41  0000              add [eax],al
00030D43  0000              add [eax],al
00030D45  0000              add [eax],al
00030D47  0000              add [eax],al
00030D49  0000              add [eax],al
00030D4B  0000              add [eax],al
00030D4D  0000              add [eax],al
00030D4F  0000              add [eax],al
00030D51  0000              add [eax],al
00030D53  0000              add [eax],al
00030D55  0000              add [eax],al
00030D57  0000              add [eax],al
00030D59  0000              add [eax],al
00030D5B  0000              add [eax],al
00030D5D  0000              add [eax],al
00030D5F  0000              add [eax],al
00030D61  0000              add [eax],al
00030D63  0000              add [eax],al
00030D65  0000              add [eax],al
00030D67  0000              add [eax],al
00030D69  0000              add [eax],al
00030D6B  0000              add [eax],al
00030D6D  0000              add [eax],al
00030D6F  0000              add [eax],al
00030D71  0000              add [eax],al
00030D73  0000              add [eax],al
00030D75  0000              add [eax],al
00030D77  0000              add [eax],al
00030D79  0000              add [eax],al
00030D7B  0000              add [eax],al
00030D7D  0000              add [eax],al
00030D7F  0000              add [eax],al
00030D81  0000              add [eax],al
00030D83  0000              add [eax],al
00030D85  0000              add [eax],al
00030D87  0000              add [eax],al
00030D89  0000              add [eax],al
00030D8B  0000              add [eax],al
00030D8D  0000              add [eax],al
00030D8F  0000              add [eax],al
00030D91  0000              add [eax],al
00030D93  0000              add [eax],al
00030D95  0000              add [eax],al
00030D97  0000              add [eax],al
00030D99  0000              add [eax],al
00030D9B  0000              add [eax],al
00030D9D  0000              add [eax],al
00030D9F  0000              add [eax],al
00030DA1  0000              add [eax],al
00030DA3  0000              add [eax],al
00030DA5  0000              add [eax],al
00030DA7  0000              add [eax],al
00030DA9  0000              add [eax],al
00030DAB  0000              add [eax],al
00030DAD  0000              add [eax],al
00030DAF  0000              add [eax],al
00030DB1  0000              add [eax],al
00030DB3  0000              add [eax],al
00030DB5  0000              add [eax],al
00030DB7  0000              add [eax],al
00030DB9  0000              add [eax],al
00030DBB  0000              add [eax],al
00030DBD  0000              add [eax],al
00030DBF  0000              add [eax],al
00030DC1  0000              add [eax],al
00030DC3  0000              add [eax],al
00030DC5  0000              add [eax],al
00030DC7  0000              add [eax],al
00030DC9  0000              add [eax],al
00030DCB  0000              add [eax],al
00030DCD  0000              add [eax],al
00030DCF  0000              add [eax],al
00030DD1  0000              add [eax],al
00030DD3  0000              add [eax],al
00030DD5  0000              add [eax],al
00030DD7  0000              add [eax],al
00030DD9  0000              add [eax],al
00030DDB  0000              add [eax],al
00030DDD  0000              add [eax],al
00030DDF  0000              add [eax],al
00030DE1  0000              add [eax],al
00030DE3  0000              add [eax],al
00030DE5  0000              add [eax],al
00030DE7  0000              add [eax],al
00030DE9  0000              add [eax],al
00030DEB  0000              add [eax],al
00030DED  0000              add [eax],al
00030DEF  0000              add [eax],al
00030DF1  0000              add [eax],al
00030DF3  0000              add [eax],al
00030DF5  0000              add [eax],al
00030DF7  0000              add [eax],al
00030DF9  0000              add [eax],al
00030DFB  0000              add [eax],al
00030DFD  0000              add [eax],al
00030DFF  0000              add [eax],al
00030E01  0000              add [eax],al
00030E03  0000              add [eax],al
00030E05  0000              add [eax],al
00030E07  0000              add [eax],al
00030E09  0000              add [eax],al
00030E0B  0000              add [eax],al
00030E0D  0000              add [eax],al
00030E0F  0000              add [eax],al
00030E11  0000              add [eax],al
00030E13  0000              add [eax],al
00030E15  0000              add [eax],al
00030E17  0000              add [eax],al
00030E19  0000              add [eax],al
00030E1B  0000              add [eax],al
00030E1D  0000              add [eax],al
00030E1F  0000              add [eax],al
00030E21  0000              add [eax],al
00030E23  0000              add [eax],al
00030E25  0000              add [eax],al
00030E27  0000              add [eax],al
00030E29  0000              add [eax],al
00030E2B  0000              add [eax],al
00030E2D  0000              add [eax],al
00030E2F  0000              add [eax],al
00030E31  0000              add [eax],al
00030E33  0000              add [eax],al
00030E35  0000              add [eax],al
00030E37  0000              add [eax],al
00030E39  0000              add [eax],al
00030E3B  0000              add [eax],al
00030E3D  0000              add [eax],al
00030E3F  0000              add [eax],al
00030E41  0000              add [eax],al
00030E43  0000              add [eax],al
00030E45  0000              add [eax],al
00030E47  0000              add [eax],al
00030E49  0000              add [eax],al
00030E4B  0000              add [eax],al
00030E4D  0000              add [eax],al
00030E4F  0000              add [eax],al
00030E51  0000              add [eax],al
00030E53  0000              add [eax],al
00030E55  0000              add [eax],al
00030E57  0000              add [eax],al
00030E59  0000              add [eax],al
00030E5B  0000              add [eax],al
00030E5D  0000              add [eax],al
00030E5F  0000              add [eax],al
00030E61  0000              add [eax],al
00030E63  0000              add [eax],al
00030E65  0000              add [eax],al
00030E67  0000              add [eax],al
00030E69  0000              add [eax],al
00030E6B  0000              add [eax],al
00030E6D  0000              add [eax],al
00030E6F  0000              add [eax],al
00030E71  0000              add [eax],al
00030E73  0000              add [eax],al
00030E75  0000              add [eax],al
00030E77  0000              add [eax],al
00030E79  0000              add [eax],al
00030E7B  0000              add [eax],al
00030E7D  0000              add [eax],al
00030E7F  0000              add [eax],al
00030E81  0000              add [eax],al
00030E83  0000              add [eax],al
00030E85  0000              add [eax],al
00030E87  0000              add [eax],al
00030E89  0000              add [eax],al
00030E8B  0000              add [eax],al
00030E8D  0000              add [eax],al
00030E8F  0000              add [eax],al
00030E91  0000              add [eax],al
00030E93  0000              add [eax],al
00030E95  0000              add [eax],al
00030E97  0000              add [eax],al
00030E99  0000              add [eax],al
00030E9B  0000              add [eax],al
00030E9D  0000              add [eax],al
00030E9F  0000              add [eax],al
00030EA1  0000              add [eax],al
00030EA3  0000              add [eax],al
00030EA5  0000              add [eax],al
00030EA7  0000              add [eax],al
00030EA9  0000              add [eax],al
00030EAB  0000              add [eax],al
00030EAD  0000              add [eax],al
00030EAF  0000              add [eax],al
00030EB1  0000              add [eax],al
00030EB3  0000              add [eax],al
00030EB5  0000              add [eax],al
00030EB7  0000              add [eax],al
00030EB9  0000              add [eax],al
00030EBB  0000              add [eax],al
00030EBD  0000              add [eax],al
00030EBF  0000              add [eax],al
00030EC1  0000              add [eax],al
00030EC3  0000              add [eax],al
00030EC5  0000              add [eax],al
00030EC7  0000              add [eax],al
00030EC9  0000              add [eax],al
00030ECB  0000              add [eax],al
00030ECD  0000              add [eax],al
00030ECF  0000              add [eax],al
00030ED1  0000              add [eax],al
00030ED3  0000              add [eax],al
00030ED5  0000              add [eax],al
00030ED7  0000              add [eax],al
00030ED9  0000              add [eax],al
00030EDB  0000              add [eax],al
00030EDD  0000              add [eax],al
00030EDF  0000              add [eax],al
00030EE1  0000              add [eax],al
00030EE3  0000              add [eax],al
00030EE5  0000              add [eax],al
00030EE7  0000              add [eax],al
00030EE9  0000              add [eax],al
00030EEB  0000              add [eax],al
00030EED  0000              add [eax],al
00030EEF  0000              add [eax],al
00030EF1  0000              add [eax],al
00030EF3  0000              add [eax],al
00030EF5  0000              add [eax],al
00030EF7  0000              add [eax],al
00030EF9  0000              add [eax],al
00030EFB  0000              add [eax],al
00030EFD  0000              add [eax],al
00030EFF  0000              add [eax],al
00030F01  0000              add [eax],al
00030F03  0000              add [eax],al
00030F05  0000              add [eax],al
00030F07  0000              add [eax],al
00030F09  0000              add [eax],al
00030F0B  0000              add [eax],al
00030F0D  0000              add [eax],al
00030F0F  0000              add [eax],al
00030F11  0000              add [eax],al
00030F13  0000              add [eax],al
00030F15  0000              add [eax],al
00030F17  0000              add [eax],al
00030F19  0000              add [eax],al
00030F1B  0000              add [eax],al
00030F1D  0000              add [eax],al
00030F1F  0000              add [eax],al
00030F21  0000              add [eax],al
00030F23  0000              add [eax],al
00030F25  0000              add [eax],al
00030F27  0000              add [eax],al
00030F29  0000              add [eax],al
00030F2B  0000              add [eax],al
00030F2D  0000              add [eax],al
00030F2F  0000              add [eax],al
00030F31  0000              add [eax],al
00030F33  0000              add [eax],al
00030F35  0000              add [eax],al
00030F37  0000              add [eax],al
00030F39  0000              add [eax],al
00030F3B  0000              add [eax],al
00030F3D  0000              add [eax],al
00030F3F  0000              add [eax],al
00030F41  0000              add [eax],al
00030F43  0000              add [eax],al
00030F45  0000              add [eax],al
00030F47  0000              add [eax],al
00030F49  0000              add [eax],al
00030F4B  0000              add [eax],al
00030F4D  0000              add [eax],al
00030F4F  0000              add [eax],al
00030F51  0000              add [eax],al
00030F53  0000              add [eax],al
00030F55  0000              add [eax],al
00030F57  0000              add [eax],al
00030F59  0000              add [eax],al
00030F5B  0000              add [eax],al
00030F5D  0000              add [eax],al
00030F5F  0000              add [eax],al
00030F61  0000              add [eax],al
00030F63  0000              add [eax],al
00030F65  0000              add [eax],al
00030F67  0000              add [eax],al
00030F69  0000              add [eax],al
00030F6B  0000              add [eax],al
00030F6D  0000              add [eax],al
00030F6F  0000              add [eax],al
00030F71  0000              add [eax],al
00030F73  0000              add [eax],al
00030F75  0000              add [eax],al
00030F77  0000              add [eax],al
00030F79  0000              add [eax],al
00030F7B  0000              add [eax],al
00030F7D  0000              add [eax],al
00030F7F  0000              add [eax],al
00030F81  0000              add [eax],al
00030F83  0000              add [eax],al
00030F85  0000              add [eax],al
00030F87  0000              add [eax],al
00030F89  0000              add [eax],al
00030F8B  0000              add [eax],al
00030F8D  0000              add [eax],al
00030F8F  0000              add [eax],al
00030F91  0000              add [eax],al
00030F93  0000              add [eax],al
00030F95  0000              add [eax],al
00030F97  0000              add [eax],al
00030F99  0000              add [eax],al
00030F9B  0000              add [eax],al
00030F9D  0000              add [eax],al
00030F9F  0000              add [eax],al
00030FA1  0000              add [eax],al
00030FA3  0000              add [eax],al
00030FA5  0000              add [eax],al
00030FA7  0000              add [eax],al
00030FA9  0000              add [eax],al
00030FAB  0000              add [eax],al
00030FAD  0000              add [eax],al
00030FAF  0000              add [eax],al
00030FB1  0000              add [eax],al
00030FB3  0000              add [eax],al
00030FB5  0000              add [eax],al
00030FB7  0000              add [eax],al
00030FB9  0000              add [eax],al
00030FBB  0000              add [eax],al
00030FBD  0000              add [eax],al
00030FBF  0000              add [eax],al
00030FC1  0000              add [eax],al
00030FC3  0000              add [eax],al
00030FC5  0000              add [eax],al
00030FC7  0000              add [eax],al
00030FC9  0000              add [eax],al
00030FCB  0000              add [eax],al
00030FCD  0000              add [eax],al
00030FCF  0000              add [eax],al
00030FD1  0000              add [eax],al
00030FD3  0000              add [eax],al
00030FD5  0000              add [eax],al
00030FD7  0000              add [eax],al
00030FD9  0000              add [eax],al
00030FDB  0000              add [eax],al
00030FDD  0000              add [eax],al
00030FDF  0000              add [eax],al
00030FE1  0000              add [eax],al
00030FE3  0000              add [eax],al
00030FE5  0000              add [eax],al
00030FE7  0000              add [eax],al
00030FE9  0000              add [eax],al
00030FEB  0000              add [eax],al
00030FED  0000              add [eax],al
00030FEF  0000              add [eax],al
00030FF1  0000              add [eax],al
00030FF3  0000              add [eax],al
00030FF5  0000              add [eax],al
00030FF7  0000              add [eax],al
00030FF9  0000              add [eax],al
00030FFB  0000              add [eax],al
00030FFD  0000              add [eax],al
00030FFF  000A              add [edx],cl
00031001  0A0A              or cl,[edx]
00031003  0A0A              or cl,[edx]
00031005  0A0A              or cl,[edx]
00031007  0A0A              or cl,[edx]
00031009  0A0A              or cl,[edx]
0003100B  0A0A              or cl,[edx]
0003100D  0A0A              or cl,[edx]
0003100F  2D2D2D2D2D        sub eax,0x2d2d2d2d
00031014  2D2D226373        sub eax,0x7363222d
00031019  7461              jz 0x3107c
0003101B  7274              jc 0x31091
0003101D  2220              and ah,[eax]
0003101F  626567            bound esp,[ebp+0x67]
00031022  696E732D2D2D2D    imul ebp,[esi+0x73],dword 0x2d2d2d2d
00031029  2D2D2D0A00        sub eax,0xa2d2d
0003102E  2D2D2D2D2D        sub eax,0x2d2d2d2d
00031033  2D2D226373        sub eax,0x7363222d
00031038  7461              jz 0x3109b
0003103A  7274              jc 0x310b0
0003103C  2220              and ah,[eax]
0003103E  656E              gs outsb
00031040  642D2D2D2D2D      fs sub eax,0x2d2d2d2d
00031046  2D2D0A0000        sub eax,0xa2d
0003104B  0023              add [ebx],ah
0003104D  44                inc esp
0003104E  45                inc ebp
0003104F  20446976          and [ecx+ebp*2+0x76],al
00031053  696465204572726F  imul esp,[ebp+0x20],dword 0x6f727245
0003105B  7200              jc 0x3105d
0003105D  23444220          and eax,[edx+eax*2+0x20]
00031061  52                push edx
00031062  45                inc ebp
00031063  53                push ebx
00031064  45                inc ebp
00031065  52                push edx
00031066  56                push esi
00031067  45                inc ebp
00031068  44                inc esp
00031069  0023              add [ebx],ah
0003106B  42                inc edx
0003106C  50                push eax
0003106D  204272            and [edx+0x72],al
00031070  6561              gs popa
00031072  6B706F69          imul esi,[eax+0x6f],byte +0x69
00031076  6E                outsb
00031077  7400              jz 0x31079
00031079  234F46            and ecx,[edi+0x46]
0003107C  204F76            and [edi+0x76],cl
0003107F  657266            gs jc 0x310e8
00031082  6C                insb
00031083  6F                outsd
00031084  7700              ja 0x31086
00031086  234252            and eax,[edx+0x52]
00031089  20426F            and [edx+0x6f],al
0003108C  756E              jnz 0x310fc
0003108E  64205261          and [fs:edx+0x61],dl
00031092  6E                outsb
00031093  6765204578        and [gs:di+0x78],al
00031098  636565            arpl [ebp+0x65],sp
0003109B  6465640000        add [fs:eax],al
000310A0  235544            and edx,[ebp+0x44]
000310A3  20496E            and [ecx+0x6e],cl
000310A6  7661              jna 0x31109
000310A8  6C                insb
000310A9  6964204F70636F64  imul esp,[eax+0x4f],dword 0x646f6370
000310B1  6528556E          sub [gs:ebp+0x6e],dl
000310B5  646566696E656420  imul bp,[gs:esi+0x65],word 0x2064
000310BD  4F                dec edi
000310BE  7063              jo 0x31123
000310C0  6F                outsd
000310C1  64652900          sub [gs:eax],eax
000310C5  0000              add [eax],al
000310C7  0023              add [ebx],ah
000310C9  4E                dec esi
000310CA  4D                dec ebp
000310CB  20446576          and [ebp+0x76],al
000310CF  696365204E6F74    imul esp,[ebx+0x65],dword 0x746f4e20
000310D6  204176            and [ecx+0x76],al
000310D9  61                popa
000310DA  6961626C65284E    imul esp,[ecx+0x62],dword 0x4e28656c
000310E1  6F                outsd
000310E2  204D61            and [ebp+0x61],cl
000310E5  7468              jz 0x3114f
000310E7  20436F            and [ebx+0x6f],al
000310EA  7072              jo 0x3115e
000310EC  6F                outsd
000310ED  636573            arpl [ebp+0x73],sp
000310F0  736F              jnc 0x31161
000310F2  7229              jc 0x3111d
000310F4  00444620          add [esi+eax*2+0x20],al
000310F8  44                inc esp
000310F9  6F                outsd
000310FA  7562              jnz 0x3115e
000310FC  6C                insb
000310FD  65204661          and [gs:esi+0x61],al
00031101  756C              jnz 0x3116f
00031103  7400              jz 0x31105
00031105  0000              add [eax],al
00031107  0020              add [eax],ah
00031109  2020              and [eax],ah
0003110B  43                inc ebx
0003110C  6F                outsd
0003110D  7072              jo 0x31181
0003110F  6F                outsd
00031110  636573            arpl [ebp+0x73],sp
00031113  736F              jnc 0x31184
00031115  7220              jc 0x31137
00031117  53                push ebx
00031118  65676D            gs a16 insd
0003111B  656E              gs outsb
0003111D  7420              jz 0x3113f
0003111F  4F                dec edi
00031120  7665              jna 0x31187
00031122  7272              jc 0x31196
00031124  756E              jnz 0x31194
00031126  287265            sub [edx+0x65],dh
00031129  7365              jnc 0x31190
0003112B  7276              jc 0x311a3
0003112D  65642900          sub [fs:eax],eax
00031131  23545320          and edx,[ebx+edx*2+0x20]
00031135  49                dec ecx
00031136  6E                outsb
00031137  7661              jna 0x3119a
00031139  6C                insb
0003113A  6964205453530023  imul esp,[eax+0x54],dword 0x23005353
00031142  4E                dec esi
00031143  50                push eax
00031144  205365            and [ebx+0x65],dl
00031147  676D              a16 insd
00031149  656E              gs outsb
0003114B  7420              jz 0x3116d
0003114D  4E                dec esi
0003114E  6F                outsd
0003114F  7420              jz 0x31171
00031151  50                push eax
00031152  7265              jc 0x311b9
00031154  7365              jnc 0x311bb
00031156  6E                outsb
00031157  7400              jz 0x31159
00031159  235353            and edx,[ebx+0x53]
0003115C  205374            and [ebx+0x74],dl
0003115F  61                popa
00031160  636B2D            arpl [ebx+0x2d],bp
00031163  53                push ebx
00031164  65676D            gs a16 insd
00031167  656E              gs outsb
00031169  7420              jz 0x3118b
0003116B  46                inc esi
0003116C  61                popa
0003116D  756C              jnz 0x311db
0003116F  7400              jz 0x31171
00031171  234750            and eax,[edi+0x50]
00031174  204765            and [edi+0x65],al
00031177  6E                outsb
00031178  657261            gs jc 0x311dc
0003117B  6C                insb
0003117C  205072            and [eax+0x72],dl
0003117F  6F                outsd
00031180  7465              jz 0x311e7
00031182  6374696F          arpl [ecx+ebp*2+0x6f],si
00031186  6E                outsb
00031187  0023              add [ebx],ah
00031189  50                push eax
0003118A  46                inc esi
0003118B  205061            and [eax+0x61],dl
0003118E  6765204661        and [gs:bp+0x61],al
00031193  756C              jnz 0x31201
00031195  7400              jz 0x31197
00031197  002D2D202028      add [dword 0x2820202d],ch
0003119D  49                dec ecx
0003119E  6E                outsb
0003119F  7465              jz 0x31206
000311A1  6C                insb
000311A2  207265            and [edx+0x65],dh
000311A5  7365              jnc 0x3120c
000311A7  7276              jc 0x3121f
000311A9  65642E20446F20    and [cs:edi+ebp*2+0x20],al
000311B0  6E                outsb
000311B1  6F                outsd
000311B2  7420              jz 0x311d4
000311B4  7573              jnz 0x31229
000311B6  652E0000          add [cs:eax],al
000311BA  0000              add [eax],al
000311BC  234D46            and ecx,[ebp+0x46]
000311BF  207838            and [eax+0x38],bh
000311C2  37                aaa
000311C3  204650            and [esi+0x50],al
000311C6  55                push ebp
000311C7  20466C            and [esi+0x6c],al
000311CA  6F                outsd
000311CB  61                popa
000311CC  7469              jz 0x31237
000311CE  6E                outsb
000311CF  672D506F696E      sub eax,0x6e696f50
000311D5  7420              jz 0x311f7
000311D7  45                inc ebp
000311D8  7272              jc 0x3124c
000311DA  6F                outsd
000311DB  7228              jc 0x31205
000311DD  4D                dec ebp
000311DE  61                popa
000311DF  7468              jz 0x31249
000311E1  204661            and [esi+0x61],al
000311E4  756C              jnz 0x31252
000311E6  7429              jz 0x31211
000311E8  0023              add [ebx],ah
000311EA  41                inc ecx
000311EB  43                inc ebx
000311EC  20416C            and [ecx+0x6c],al
000311EF  69676E6D656E74    imul esp,[edi+0x6e],dword 0x746e656d
000311F6  204368            and [ebx+0x68],al
000311F9  65636B00          arpl [gs:ebx+0x0],bp
000311FD  234D43            and ecx,[ebp+0x43]
00031200  204D61            and [ebp+0x61],cl
00031203  636869            arpl [eax+0x69],bp
00031206  6E                outsb
00031207  65204368          and [gs:ebx+0x68],al
0003120B  65636B00          arpl [gs:ebx+0x0],bp
0003120F  0023              add [ebx],ah
00031211  58                pop eax
00031212  46                inc esi
00031213  205349            and [ebx+0x49],dl
00031216  4D                dec ebp
00031217  44                inc esp
00031218  20466C            and [esi+0x6c],al
0003121B  6F                outsd
0003121C  61                popa
0003121D  7469              jz 0x31288
0003121F  6E                outsb
00031220  672D506F696E      sub eax,0x6e696f50
00031226  7420              jz 0x31248
00031228  45                inc ebp
00031229  7863              js 0x3128e
0003122B  657074            gs jo 0x312a2
0003122E  696F6E00200045    imul ebp,[edi+0x6e],dword 0x45002000
00031235  7863              js 0x3129a
00031237  657074            gs jo 0x312ae
0003123A  696F6E21202D2D    imul ebp,[edi+0x6e],dword 0x2d2d2021
00031241  3E2000            and [ds:eax],al
00031244  0A0A              or cl,[edx]
00031246  004546            add [ebp+0x46],al
00031249  4C                dec esp
0003124A  41                inc ecx
0003124B  47                inc edi
0003124C  53                push ebx
0003124D  3A00              cmp al,[eax]
0003124F  45                inc ebp
00031250  7272              jc 0x312c4
00031252  6F                outsd
00031253  7220              jc 0x31275
00031255  43                inc ebx
00031256  6F                outsd
00031257  64653A00          cmp al,[gs:eax]
0003125B  001400            add [eax+eax],dl
0003125E  0000              add [eax],al
00031260  0000              add [eax],al
00031262  0000              add [eax],al
00031264  017A52            add [edx+0x52],edi
00031267  0001              add [ecx],al
00031269  7C08              jl 0x31273
0003126B  011B              add [ebx],ebx
0003126D  0C04              or al,0x4
0003126F  0488              add al,0x88
00031271  0100              add [eax],eax
00031273  0020              add [eax],ah
00031275  0000              add [eax],al
00031277  001C00            add [eax+eax],bl
0003127A  0000              add [eax],al
0003127C  11F2              adc edx,esi
0003127E  FF                db 0xff
0003127F  FFC7              inc edi
00031281  0000              add [eax],al
00031283  0000              add [eax],al
00031285  45                inc ebp
00031286  0E                push cs
00031287  088502420D05      or [ebp+0x50d4202],al
0003128D  44                inc esp
0003128E  830302            add dword [ebx],byte +0x2
00031291  BBC5C30C04        mov ebx,0x40cc3c5
00031296  0400              add al,0x0
00031298  1000              adc [eax],al
0003129A  0000              add [eax],al
0003129C  40                inc eax
0003129D  0000              add [eax],al
0003129F  00B4F2FFFF0400    add [edx+esi*8+0x4ffff],dh
000312A6  0000              add [eax],al
000312A8  0000              add [eax],al
000312AA  0000              add [eax],al
000312AC  2000              and [eax],al
000312AE  0000              add [eax],al
000312B0  54                push esp
000312B1  0000              add [eax],al
000312B3  00A4F2FFFFC700    add [edx+esi*8+0xc7ffff],ah
000312BA  0000              add [eax],al
000312BC  00450E            add [ebp+0xe],al
000312BF  088502420D05      or [ebp+0x50d4202],al
000312C5  44                inc esp
000312C6  830302            add dword [ebx],byte +0x2
000312C9  BBC5C30C04        mov ebx,0x40cc3c5
000312CE  0400              add al,0x0
000312D0  2000              and [eax],al
000312D2  0000              add [eax],al
000312D4  7800              js 0x312d6
000312D6  0000              add [eax],al
000312D8  47                inc edi
000312D9  F3                rep
000312DA  FF                db 0xff
000312DB  FFA101000000      jmp [ecx+0x1]
000312E1  45                inc ebp
000312E2  0E                push cs
000312E3  088502420D05      or [ebp+0x50d4202],al
000312E9  44                inc esp
000312EA  830303            add dword [ebx],byte +0x3
000312ED  95                xchg eax,ebp
000312EE  01C5              add ebp,eax
000312F0  C3                ret
000312F1  0C04              or al,0x4
000312F3  0420              add al,0x20
000312F5  0000              add [eax],al
000312F7  009C000000C4F4    add [eax+eax-0xb3c0000],bl
000312FE  FF                db 0xff
000312FF  FF8700000000      inc dword [edi+0x0]
00031305  45                inc ebp
00031306  0E                push cs
00031307  088502420D05      or [ebp+0x50d4202],al
0003130D  44                inc esp
0003130E  830302            add dword [ebx],byte +0x2
00031311  7AC3              jpe 0x312d6
00031313  41                inc ecx
00031314  C50C04            lds ecx,[esp+eax]
00031317  0428              add al,0x28
00031319  0000              add [eax],al
0003131B  00C0              add al,al
0003131D  0000              add [eax],al
0003131F  0027              add [edi],ah
00031321  F5                cmc
00031322  FF                db 0xff
00031323  FF                db 0xff
00031324  FA                cli
00031325  0000              add [eax],al
00031327  0000              add [eax],al
00031329  45                inc ebp
0003132A  0E                push cs
0003132B  088502420D05      or [ebp+0x50d4202],al
00031331  46                inc esi
00031332  8703              xchg eax,[ebx]
00031334  860483            xchg al,[ebx+eax*4]
00031337  0502E9C341        add eax,0x41c3e902
0003133C  C641C741          mov byte [ecx-0x39],0x41
00031340  C50C04            lds ecx,[esp+eax]
00031343  0410              add al,0x10
00031345  0000              add [eax],al
00031347  00EC              add ah,ch
00031349  0000              add [eax],al
0003134B  00F5              add ch,dh
0003134D  F5                cmc
0003134E  FF                db 0xff
0003134F  FF0400            inc dword [eax+eax]
00031352  0000              add [eax],al
00031354  0000              add [eax],al
00031356  0000              add [eax],al
00031358  1C00              sbb al,0x0
0003135A  0000              add [eax],al
0003135C  0001              add [ecx],al
0003135E  0000              add [eax],al
00031360  E5F5              in eax,0xf5
00031362  FF                db 0xff
00031363  FFA900000000      jmp far [ecx+0x0]
00031369  45                inc ebp
0003136A  0E                push cs
0003136B  088502420D05      or [ebp+0x50d4202],al
00031371  02A1C50C0404      add ah,[ecx+0x4040cc5]
00031377  0020              add [eax],ah
00031379  0000              add [eax],al
0003137B  0020              add [eax],ah
0003137D  0100              add [eax],eax
0003137F  006EF6            add [esi-0xa],ch
00031382  FF                db 0xff
00031383  FF                db 0xff
00031384  3A00              cmp al,[eax]
00031386  0000              add [eax],al
00031388  00450E            add [ebp+0xe],al
0003138B  088502420D05      or [ebp+0x50d4202],al
00031391  44                inc esp
00031392  83036E            add dword [ebx],byte +0x6e
00031395  C5                db 0xc5
00031396  C3                ret
00031397  0C04              or al,0x4
00031399  0400              add al,0x0
0003139B  0000              add [eax],al
0003139D  0000              add [eax],al
0003139F  0000              add [eax],al
000313A1  0000              add [eax],al
000313A3  0000              add [eax],al
000313A5  0000              add [eax],al
000313A7  0000              add [eax],al
000313A9  0000              add [eax],al
000313AB  0000              add [eax],al
000313AD  0000              add [eax],al
000313AF  0000              add [eax],al
000313B1  0000              add [eax],al
000313B3  0000              add [eax],al
000313B5  0000              add [eax],al
000313B7  0000              add [eax],al
000313B9  0000              add [eax],al
000313BB  0000              add [eax],al
000313BD  0000              add [eax],al
000313BF  0000              add [eax],al
000313C1  0000              add [eax],al
000313C3  0000              add [eax],al
000313C5  0000              add [eax],al
000313C7  0000              add [eax],al
000313C9  0000              add [eax],al
000313CB  0000              add [eax],al
000313CD  0000              add [eax],al
000313CF  0000              add [eax],al
000313D1  0000              add [eax],al
000313D3  0000              add [eax],al
000313D5  0000              add [eax],al
000313D7  0000              add [eax],al
000313D9  0000              add [eax],al
000313DB  0000              add [eax],al
000313DD  0000              add [eax],al
000313DF  0000              add [eax],al
000313E1  0000              add [eax],al
000313E3  0000              add [eax],al
000313E5  0000              add [eax],al
000313E7  0000              add [eax],al
000313E9  0000              add [eax],al
000313EB  0000              add [eax],al
000313ED  0000              add [eax],al
000313EF  0000              add [eax],al
000313F1  0000              add [eax],al
000313F3  0000              add [eax],al
000313F5  0000              add [eax],al
000313F7  0000              add [eax],al
000313F9  0000              add [eax],al
000313FB  0000              add [eax],al
000313FD  0000              add [eax],al
000313FF  0000              add [eax],al
00031401  0000              add [eax],al
00031403  0000              add [eax],al
00031405  0000              add [eax],al
00031407  0000              add [eax],al
00031409  0000              add [eax],al
0003140B  0000              add [eax],al
0003140D  0000              add [eax],al
0003140F  0000              add [eax],al
00031411  0000              add [eax],al
00031413  0000              add [eax],al
00031415  0000              add [eax],al
00031417  0000              add [eax],al
00031419  0000              add [eax],al
0003141B  0000              add [eax],al
0003141D  0000              add [eax],al
0003141F  0000              add [eax],al
00031421  0000              add [eax],al
00031423  0000              add [eax],al
00031425  0000              add [eax],al
00031427  0000              add [eax],al
00031429  0000              add [eax],al
0003142B  0000              add [eax],al
0003142D  0000              add [eax],al
0003142F  0000              add [eax],al
00031431  0000              add [eax],al
00031433  0000              add [eax],al
00031435  0000              add [eax],al
00031437  0000              add [eax],al
00031439  0000              add [eax],al
0003143B  0000              add [eax],al
0003143D  0000              add [eax],al
0003143F  0000              add [eax],al
00031441  0000              add [eax],al
00031443  0000              add [eax],al
00031445  0000              add [eax],al
00031447  0000              add [eax],al
00031449  0000              add [eax],al
0003144B  0000              add [eax],al
0003144D  0000              add [eax],al
0003144F  0000              add [eax],al
00031451  0000              add [eax],al
00031453  0000              add [eax],al
00031455  0000              add [eax],al
00031457  0000              add [eax],al
00031459  0000              add [eax],al
0003145B  0000              add [eax],al
0003145D  0000              add [eax],al
0003145F  0000              add [eax],al
00031461  0000              add [eax],al
00031463  0000              add [eax],al
00031465  0000              add [eax],al
00031467  0000              add [eax],al
00031469  0000              add [eax],al
0003146B  0000              add [eax],al
0003146D  0000              add [eax],al
0003146F  0000              add [eax],al
00031471  0000              add [eax],al
00031473  0000              add [eax],al
00031475  0000              add [eax],al
00031477  0000              add [eax],al
00031479  0000              add [eax],al
0003147B  0000              add [eax],al
0003147D  0000              add [eax],al
0003147F  0000              add [eax],al
00031481  0000              add [eax],al
00031483  0000              add [eax],al
00031485  0000              add [eax],al
00031487  0000              add [eax],al
00031489  0000              add [eax],al
0003148B  0000              add [eax],al
0003148D  0000              add [eax],al
0003148F  0000              add [eax],al
00031491  0000              add [eax],al
00031493  0000              add [eax],al
00031495  0000              add [eax],al
00031497  0000              add [eax],al
00031499  0000              add [eax],al
0003149B  0000              add [eax],al
0003149D  0000              add [eax],al
0003149F  0000              add [eax],al
000314A1  0000              add [eax],al
000314A3  0000              add [eax],al
000314A5  0000              add [eax],al
000314A7  0000              add [eax],al
000314A9  0000              add [eax],al
000314AB  0000              add [eax],al
000314AD  0000              add [eax],al
000314AF  0000              add [eax],al
000314B1  0000              add [eax],al
000314B3  0000              add [eax],al
000314B5  0000              add [eax],al
000314B7  0000              add [eax],al
000314B9  0000              add [eax],al
000314BB  0000              add [eax],al
000314BD  0000              add [eax],al
000314BF  0000              add [eax],al
000314C1  0000              add [eax],al
000314C3  0000              add [eax],al
000314C5  0000              add [eax],al
000314C7  0000              add [eax],al
000314C9  0000              add [eax],al
000314CB  0000              add [eax],al
000314CD  0000              add [eax],al
000314CF  0000              add [eax],al
000314D1  0000              add [eax],al
000314D3  0000              add [eax],al
000314D5  0000              add [eax],al
000314D7  0000              add [eax],al
000314D9  0000              add [eax],al
000314DB  0000              add [eax],al
000314DD  0000              add [eax],al
000314DF  0000              add [eax],al
000314E1  0000              add [eax],al
000314E3  0000              add [eax],al
000314E5  0000              add [eax],al
000314E7  0000              add [eax],al
000314E9  0000              add [eax],al
000314EB  0000              add [eax],al
000314ED  0000              add [eax],al
000314EF  0000              add [eax],al
000314F1  0000              add [eax],al
000314F3  0000              add [eax],al
000314F5  0000              add [eax],al
000314F7  0000              add [eax],al
000314F9  0000              add [eax],al
000314FB  0000              add [eax],al
000314FD  0000              add [eax],al
000314FF  0000              add [eax],al
00031501  0000              add [eax],al
00031503  0000              add [eax],al
00031505  0000              add [eax],al
00031507  0000              add [eax],al
00031509  0000              add [eax],al
0003150B  0000              add [eax],al
0003150D  0000              add [eax],al
0003150F  0000              add [eax],al
00031511  0000              add [eax],al
00031513  0000              add [eax],al
00031515  0000              add [eax],al
00031517  0000              add [eax],al
00031519  0000              add [eax],al
0003151B  0000              add [eax],al
0003151D  0000              add [eax],al
0003151F  0000              add [eax],al
00031521  0000              add [eax],al
00031523  0000              add [eax],al
00031525  0000              add [eax],al
00031527  0000              add [eax],al
00031529  0000              add [eax],al
0003152B  0000              add [eax],al
0003152D  0000              add [eax],al
0003152F  0000              add [eax],al
00031531  0000              add [eax],al
00031533  0000              add [eax],al
00031535  0000              add [eax],al
00031537  0000              add [eax],al
00031539  0000              add [eax],al
0003153B  0000              add [eax],al
0003153D  0000              add [eax],al
0003153F  0000              add [eax],al
00031541  0000              add [eax],al
00031543  0000              add [eax],al
00031545  0000              add [eax],al
00031547  0000              add [eax],al
00031549  0000              add [eax],al
0003154B  0000              add [eax],al
0003154D  0000              add [eax],al
0003154F  0000              add [eax],al
00031551  0000              add [eax],al
00031553  0000              add [eax],al
00031555  0000              add [eax],al
00031557  0000              add [eax],al
00031559  0000              add [eax],al
0003155B  0000              add [eax],al
0003155D  0000              add [eax],al
0003155F  0000              add [eax],al
00031561  0000              add [eax],al
00031563  0000              add [eax],al
00031565  0000              add [eax],al
00031567  0000              add [eax],al
00031569  0000              add [eax],al
0003156B  0000              add [eax],al
0003156D  0000              add [eax],al
0003156F  0000              add [eax],al
00031571  0000              add [eax],al
00031573  0000              add [eax],al
00031575  0000              add [eax],al
00031577  0000              add [eax],al
00031579  0000              add [eax],al
0003157B  0000              add [eax],al
0003157D  0000              add [eax],al
0003157F  0000              add [eax],al
00031581  0000              add [eax],al
00031583  0000              add [eax],al
00031585  0000              add [eax],al
00031587  0000              add [eax],al
00031589  0000              add [eax],al
0003158B  0000              add [eax],al
0003158D  0000              add [eax],al
0003158F  0000              add [eax],al
00031591  0000              add [eax],al
00031593  0000              add [eax],al
00031595  0000              add [eax],al
00031597  0000              add [eax],al
00031599  0000              add [eax],al
0003159B  0000              add [eax],al
0003159D  0000              add [eax],al
0003159F  0000              add [eax],al
000315A1  0000              add [eax],al
000315A3  0000              add [eax],al
000315A5  0000              add [eax],al
000315A7  0000              add [eax],al
000315A9  0000              add [eax],al
000315AB  0000              add [eax],al
000315AD  0000              add [eax],al
000315AF  0000              add [eax],al
000315B1  0000              add [eax],al
000315B3  0000              add [eax],al
000315B5  0000              add [eax],al
000315B7  0000              add [eax],al
000315B9  0000              add [eax],al
000315BB  0000              add [eax],al
000315BD  0000              add [eax],al
000315BF  0000              add [eax],al
000315C1  0000              add [eax],al
000315C3  0000              add [eax],al
000315C5  0000              add [eax],al
000315C7  0000              add [eax],al
000315C9  0000              add [eax],al
000315CB  0000              add [eax],al
000315CD  0000              add [eax],al
000315CF  0000              add [eax],al
000315D1  0000              add [eax],al
000315D3  0000              add [eax],al
000315D5  0000              add [eax],al
000315D7  0000              add [eax],al
000315D9  0000              add [eax],al
000315DB  0000              add [eax],al
000315DD  0000              add [eax],al
000315DF  0000              add [eax],al
000315E1  0000              add [eax],al
000315E3  0000              add [eax],al
000315E5  0000              add [eax],al
000315E7  0000              add [eax],al
000315E9  0000              add [eax],al
000315EB  0000              add [eax],al
000315ED  0000              add [eax],al
000315EF  0000              add [eax],al
000315F1  0000              add [eax],al
000315F3  0000              add [eax],al
000315F5  0000              add [eax],al
000315F7  0000              add [eax],al
000315F9  0000              add [eax],al
000315FB  0000              add [eax],al
000315FD  0000              add [eax],al
000315FF  0000              add [eax],al
00031601  0000              add [eax],al
00031603  0000              add [eax],al
00031605  0000              add [eax],al
00031607  0000              add [eax],al
00031609  0000              add [eax],al
0003160B  0000              add [eax],al
0003160D  0000              add [eax],al
0003160F  0000              add [eax],al
00031611  0000              add [eax],al
00031613  0000              add [eax],al
00031615  0000              add [eax],al
00031617  0000              add [eax],al
00031619  0000              add [eax],al
0003161B  0000              add [eax],al
0003161D  0000              add [eax],al
0003161F  0000              add [eax],al
00031621  0000              add [eax],al
00031623  0000              add [eax],al
00031625  0000              add [eax],al
00031627  0000              add [eax],al
00031629  0000              add [eax],al
0003162B  0000              add [eax],al
0003162D  0000              add [eax],al
0003162F  0000              add [eax],al
00031631  0000              add [eax],al
00031633  0000              add [eax],al
00031635  0000              add [eax],al
00031637  0000              add [eax],al
00031639  0000              add [eax],al
0003163B  0000              add [eax],al
0003163D  0000              add [eax],al
0003163F  0000              add [eax],al
00031641  0000              add [eax],al
00031643  0000              add [eax],al
00031645  0000              add [eax],al
00031647  0000              add [eax],al
00031649  0000              add [eax],al
0003164B  0000              add [eax],al
0003164D  0000              add [eax],al
0003164F  0000              add [eax],al
00031651  0000              add [eax],al
00031653  0000              add [eax],al
00031655  0000              add [eax],al
00031657  0000              add [eax],al
00031659  0000              add [eax],al
0003165B  0000              add [eax],al
0003165D  0000              add [eax],al
0003165F  0000              add [eax],al
00031661  0000              add [eax],al
00031663  0000              add [eax],al
00031665  0000              add [eax],al
00031667  0000              add [eax],al
00031669  0000              add [eax],al
0003166B  0000              add [eax],al
0003166D  0000              add [eax],al
0003166F  0000              add [eax],al
00031671  0000              add [eax],al
00031673  0000              add [eax],al
00031675  0000              add [eax],al
00031677  0000              add [eax],al
00031679  0000              add [eax],al
0003167B  0000              add [eax],al
0003167D  0000              add [eax],al
0003167F  0000              add [eax],al
00031681  0000              add [eax],al
00031683  0000              add [eax],al
00031685  0000              add [eax],al
00031687  0000              add [eax],al
00031689  0000              add [eax],al
0003168B  0000              add [eax],al
0003168D  0000              add [eax],al
0003168F  0000              add [eax],al
00031691  0000              add [eax],al
00031693  0000              add [eax],al
00031695  0000              add [eax],al
00031697  0000              add [eax],al
00031699  0000              add [eax],al
0003169B  0000              add [eax],al
0003169D  0000              add [eax],al
0003169F  0000              add [eax],al
000316A1  0000              add [eax],al
000316A3  0000              add [eax],al
000316A5  0000              add [eax],al
000316A7  0000              add [eax],al
000316A9  0000              add [eax],al
000316AB  0000              add [eax],al
000316AD  0000              add [eax],al
000316AF  0000              add [eax],al
000316B1  0000              add [eax],al
000316B3  0000              add [eax],al
000316B5  0000              add [eax],al
000316B7  0000              add [eax],al
000316B9  0000              add [eax],al
000316BB  0000              add [eax],al
000316BD  0000              add [eax],al
000316BF  0000              add [eax],al
000316C1  0000              add [eax],al
000316C3  0000              add [eax],al
000316C5  0000              add [eax],al
000316C7  0000              add [eax],al
000316C9  0000              add [eax],al
000316CB  0000              add [eax],al
000316CD  0000              add [eax],al
000316CF  0000              add [eax],al
000316D1  0000              add [eax],al
000316D3  0000              add [eax],al
000316D5  0000              add [eax],al
000316D7  0000              add [eax],al
000316D9  0000              add [eax],al
000316DB  0000              add [eax],al
000316DD  0000              add [eax],al
000316DF  0000              add [eax],al
000316E1  0000              add [eax],al
000316E3  0000              add [eax],al
000316E5  0000              add [eax],al
000316E7  0000              add [eax],al
000316E9  0000              add [eax],al
000316EB  0000              add [eax],al
000316ED  0000              add [eax],al
000316EF  0000              add [eax],al
000316F1  0000              add [eax],al
000316F3  0000              add [eax],al
000316F5  0000              add [eax],al
000316F7  0000              add [eax],al
000316F9  0000              add [eax],al
000316FB  0000              add [eax],al
000316FD  0000              add [eax],al
000316FF  0000              add [eax],al
00031701  0000              add [eax],al
00031703  0000              add [eax],al
00031705  0000              add [eax],al
00031707  0000              add [eax],al
00031709  0000              add [eax],al
0003170B  0000              add [eax],al
0003170D  0000              add [eax],al
0003170F  0000              add [eax],al
00031711  0000              add [eax],al
00031713  0000              add [eax],al
00031715  0000              add [eax],al
00031717  0000              add [eax],al
00031719  0000              add [eax],al
0003171B  0000              add [eax],al
0003171D  0000              add [eax],al
0003171F  0000              add [eax],al
00031721  0000              add [eax],al
00031723  0000              add [eax],al
00031725  0000              add [eax],al
00031727  0000              add [eax],al
00031729  0000              add [eax],al
0003172B  0000              add [eax],al
0003172D  0000              add [eax],al
0003172F  0000              add [eax],al
00031731  0000              add [eax],al
00031733  0000              add [eax],al
00031735  0000              add [eax],al
00031737  0000              add [eax],al
00031739  0000              add [eax],al
0003173B  0000              add [eax],al
0003173D  0000              add [eax],al
0003173F  0000              add [eax],al
00031741  0000              add [eax],al
00031743  0000              add [eax],al
00031745  0000              add [eax],al
00031747  0000              add [eax],al
00031749  0000              add [eax],al
0003174B  0000              add [eax],al
0003174D  0000              add [eax],al
0003174F  0000              add [eax],al
00031751  0000              add [eax],al
00031753  0000              add [eax],al
00031755  0000              add [eax],al
00031757  0000              add [eax],al
00031759  0000              add [eax],al
0003175B  0000              add [eax],al
0003175D  0000              add [eax],al
0003175F  0000              add [eax],al
00031761  0000              add [eax],al
00031763  0000              add [eax],al
00031765  0000              add [eax],al
00031767  0000              add [eax],al
00031769  0000              add [eax],al
0003176B  0000              add [eax],al
0003176D  0000              add [eax],al
0003176F  0000              add [eax],al
00031771  0000              add [eax],al
00031773  0000              add [eax],al
00031775  0000              add [eax],al
00031777  0000              add [eax],al
00031779  0000              add [eax],al
0003177B  0000              add [eax],al
0003177D  0000              add [eax],al
0003177F  0000              add [eax],al
00031781  0000              add [eax],al
00031783  0000              add [eax],al
00031785  0000              add [eax],al
00031787  0000              add [eax],al
00031789  0000              add [eax],al
0003178B  0000              add [eax],al
0003178D  0000              add [eax],al
0003178F  0000              add [eax],al
00031791  0000              add [eax],al
00031793  0000              add [eax],al
00031795  0000              add [eax],al
00031797  0000              add [eax],al
00031799  0000              add [eax],al
0003179B  0000              add [eax],al
0003179D  0000              add [eax],al
0003179F  0000              add [eax],al
000317A1  0000              add [eax],al
000317A3  0000              add [eax],al
000317A5  0000              add [eax],al
000317A7  0000              add [eax],al
000317A9  0000              add [eax],al
000317AB  0000              add [eax],al
000317AD  0000              add [eax],al
000317AF  0000              add [eax],al
000317B1  0000              add [eax],al
000317B3  0000              add [eax],al
000317B5  0000              add [eax],al
000317B7  0000              add [eax],al
000317B9  0000              add [eax],al
000317BB  0000              add [eax],al
000317BD  0000              add [eax],al
000317BF  0000              add [eax],al
000317C1  0000              add [eax],al
000317C3  0000              add [eax],al
000317C5  0000              add [eax],al
000317C7  0000              add [eax],al
000317C9  0000              add [eax],al
000317CB  0000              add [eax],al
000317CD  0000              add [eax],al
000317CF  0000              add [eax],al
000317D1  0000              add [eax],al
000317D3  0000              add [eax],al
000317D5  0000              add [eax],al
000317D7  0000              add [eax],al
000317D9  0000              add [eax],al
000317DB  0000              add [eax],al
000317DD  0000              add [eax],al
000317DF  0000              add [eax],al
000317E1  0000              add [eax],al
000317E3  0000              add [eax],al
000317E5  0000              add [eax],al
000317E7  0000              add [eax],al
000317E9  0000              add [eax],al
000317EB  0000              add [eax],al
000317ED  0000              add [eax],al
000317EF  0000              add [eax],al
000317F1  0000              add [eax],al
000317F3  0000              add [eax],al
000317F5  0000              add [eax],al
000317F7  0000              add [eax],al
000317F9  0000              add [eax],al
000317FB  0000              add [eax],al
000317FD  0000              add [eax],al
000317FF  0000              add [eax],al
00031801  0000              add [eax],al
00031803  0000              add [eax],al
00031805  0000              add [eax],al
00031807  0000              add [eax],al
00031809  0000              add [eax],al
0003180B  0000              add [eax],al
0003180D  0000              add [eax],al
0003180F  0000              add [eax],al
00031811  0000              add [eax],al
00031813  0000              add [eax],al
00031815  0000              add [eax],al
00031817  0000              add [eax],al
00031819  0000              add [eax],al
0003181B  0000              add [eax],al
0003181D  0000              add [eax],al
0003181F  0000              add [eax],al
00031821  0000              add [eax],al
00031823  0000              add [eax],al
00031825  0000              add [eax],al
00031827  0000              add [eax],al
00031829  0000              add [eax],al
0003182B  0000              add [eax],al
0003182D  0000              add [eax],al
0003182F  0000              add [eax],al
00031831  0000              add [eax],al
00031833  0000              add [eax],al
00031835  0000              add [eax],al
00031837  0000              add [eax],al
00031839  0000              add [eax],al
0003183B  0000              add [eax],al
0003183D  0000              add [eax],al
0003183F  0000              add [eax],al
00031841  0000              add [eax],al
00031843  0000              add [eax],al
00031845  0000              add [eax],al
00031847  0000              add [eax],al
00031849  0000              add [eax],al
0003184B  0000              add [eax],al
0003184D  0000              add [eax],al
0003184F  0000              add [eax],al
00031851  0000              add [eax],al
00031853  0000              add [eax],al
00031855  0000              add [eax],al
00031857  0000              add [eax],al
00031859  0000              add [eax],al
0003185B  0000              add [eax],al
0003185D  0000              add [eax],al
0003185F  0000              add [eax],al
00031861  0000              add [eax],al
00031863  0000              add [eax],al
00031865  0000              add [eax],al
00031867  0000              add [eax],al
00031869  0000              add [eax],al
0003186B  0000              add [eax],al
0003186D  0000              add [eax],al
0003186F  0000              add [eax],al
00031871  0000              add [eax],al
00031873  0000              add [eax],al
00031875  0000              add [eax],al
00031877  0000              add [eax],al
00031879  0000              add [eax],al
0003187B  0000              add [eax],al
0003187D  0000              add [eax],al
0003187F  0000              add [eax],al
00031881  0000              add [eax],al
00031883  0000              add [eax],al
00031885  0000              add [eax],al
00031887  0000              add [eax],al
00031889  0000              add [eax],al
0003188B  0000              add [eax],al
0003188D  0000              add [eax],al
0003188F  0000              add [eax],al
00031891  0000              add [eax],al
00031893  0000              add [eax],al
00031895  0000              add [eax],al
00031897  0000              add [eax],al
00031899  0000              add [eax],al
0003189B  0000              add [eax],al
0003189D  0000              add [eax],al
0003189F  0000              add [eax],al
000318A1  0000              add [eax],al
000318A3  0000              add [eax],al
000318A5  0000              add [eax],al
000318A7  0000              add [eax],al
000318A9  0000              add [eax],al
000318AB  0000              add [eax],al
000318AD  0000              add [eax],al
000318AF  0000              add [eax],al
000318B1  0000              add [eax],al
000318B3  0000              add [eax],al
000318B5  0000              add [eax],al
000318B7  0000              add [eax],al
000318B9  0000              add [eax],al
000318BB  0000              add [eax],al
000318BD  0000              add [eax],al
000318BF  0000              add [eax],al
000318C1  0000              add [eax],al
000318C3  0000              add [eax],al
000318C5  0000              add [eax],al
000318C7  0000              add [eax],al
000318C9  0000              add [eax],al
000318CB  0000              add [eax],al
000318CD  0000              add [eax],al
000318CF  0000              add [eax],al
000318D1  0000              add [eax],al
000318D3  0000              add [eax],al
000318D5  0000              add [eax],al
000318D7  0000              add [eax],al
000318D9  0000              add [eax],al
000318DB  0000              add [eax],al
000318DD  0000              add [eax],al
000318DF  0000              add [eax],al
000318E1  0000              add [eax],al
000318E3  0000              add [eax],al
000318E5  0000              add [eax],al
000318E7  0000              add [eax],al
000318E9  0000              add [eax],al
000318EB  0000              add [eax],al
000318ED  0000              add [eax],al
000318EF  0000              add [eax],al
000318F1  0000              add [eax],al
000318F3  0000              add [eax],al
000318F5  0000              add [eax],al
000318F7  0000              add [eax],al
000318F9  0000              add [eax],al
000318FB  0000              add [eax],al
000318FD  0000              add [eax],al
000318FF  0000              add [eax],al
00031901  0000              add [eax],al
00031903  0000              add [eax],al
00031905  0000              add [eax],al
00031907  0000              add [eax],al
00031909  0000              add [eax],al
0003190B  0000              add [eax],al
0003190D  0000              add [eax],al
0003190F  0000              add [eax],al
00031911  0000              add [eax],al
00031913  0000              add [eax],al
00031915  0000              add [eax],al
00031917  0000              add [eax],al
00031919  0000              add [eax],al
0003191B  0000              add [eax],al
0003191D  0000              add [eax],al
0003191F  0000              add [eax],al
00031921  0000              add [eax],al
00031923  0000              add [eax],al
00031925  0000              add [eax],al
00031927  0000              add [eax],al
00031929  0000              add [eax],al
0003192B  0000              add [eax],al
0003192D  0000              add [eax],al
0003192F  0000              add [eax],al
00031931  0000              add [eax],al
00031933  0000              add [eax],al
00031935  0000              add [eax],al
00031937  0000              add [eax],al
00031939  0000              add [eax],al
0003193B  0000              add [eax],al
0003193D  0000              add [eax],al
0003193F  0000              add [eax],al
00031941  0000              add [eax],al
00031943  0000              add [eax],al
00031945  0000              add [eax],al
00031947  0000              add [eax],al
00031949  0000              add [eax],al
0003194B  0000              add [eax],al
0003194D  0000              add [eax],al
0003194F  0000              add [eax],al
00031951  0000              add [eax],al
00031953  0000              add [eax],al
00031955  0000              add [eax],al
00031957  0000              add [eax],al
00031959  0000              add [eax],al
0003195B  0000              add [eax],al
0003195D  0000              add [eax],al
0003195F  0000              add [eax],al
00031961  0000              add [eax],al
00031963  0000              add [eax],al
00031965  0000              add [eax],al
00031967  0000              add [eax],al
00031969  0000              add [eax],al
0003196B  0000              add [eax],al
0003196D  0000              add [eax],al
0003196F  0000              add [eax],al
00031971  0000              add [eax],al
00031973  0000              add [eax],al
00031975  0000              add [eax],al
00031977  0000              add [eax],al
00031979  0000              add [eax],al
0003197B  0000              add [eax],al
0003197D  0000              add [eax],al
0003197F  0000              add [eax],al
00031981  0000              add [eax],al
00031983  0000              add [eax],al
00031985  0000              add [eax],al
00031987  0000              add [eax],al
00031989  0000              add [eax],al
0003198B  0000              add [eax],al
0003198D  0000              add [eax],al
0003198F  0000              add [eax],al
00031991  0000              add [eax],al
00031993  0000              add [eax],al
00031995  0000              add [eax],al
00031997  0000              add [eax],al
00031999  0000              add [eax],al
0003199B  0000              add [eax],al
0003199D  0000              add [eax],al
0003199F  0000              add [eax],al
000319A1  0000              add [eax],al
000319A3  0000              add [eax],al
000319A5  0000              add [eax],al
000319A7  0000              add [eax],al
000319A9  0000              add [eax],al
000319AB  0000              add [eax],al
000319AD  0000              add [eax],al
000319AF  0000              add [eax],al
000319B1  0000              add [eax],al
000319B3  0000              add [eax],al
000319B5  0000              add [eax],al
000319B7  0000              add [eax],al
000319B9  0000              add [eax],al
000319BB  0000              add [eax],al
000319BD  0000              add [eax],al
000319BF  0000              add [eax],al
000319C1  0000              add [eax],al
000319C3  0000              add [eax],al
000319C5  0000              add [eax],al
000319C7  0000              add [eax],al
000319C9  0000              add [eax],al
000319CB  0000              add [eax],al
000319CD  0000              add [eax],al
000319CF  0000              add [eax],al
000319D1  0000              add [eax],al
000319D3  0000              add [eax],al
000319D5  0000              add [eax],al
000319D7  0000              add [eax],al
000319D9  0000              add [eax],al
000319DB  0000              add [eax],al
000319DD  0000              add [eax],al
000319DF  0000              add [eax],al
000319E1  0000              add [eax],al
000319E3  0000              add [eax],al
000319E5  0000              add [eax],al
000319E7  0000              add [eax],al
000319E9  0000              add [eax],al
000319EB  0000              add [eax],al
000319ED  0000              add [eax],al
000319EF  0000              add [eax],al
000319F1  0000              add [eax],al
000319F3  0000              add [eax],al
000319F5  0000              add [eax],al
000319F7  0000              add [eax],al
000319F9  0000              add [eax],al
000319FB  0000              add [eax],al
000319FD  0000              add [eax],al
000319FF  0000              add [eax],al
00031A01  0000              add [eax],al
00031A03  0000              add [eax],al
00031A05  0000              add [eax],al
00031A07  0000              add [eax],al
00031A09  0000              add [eax],al
00031A0B  0000              add [eax],al
00031A0D  0000              add [eax],al
00031A0F  0000              add [eax],al
00031A11  0000              add [eax],al
00031A13  0000              add [eax],al
00031A15  0000              add [eax],al
00031A17  0000              add [eax],al
00031A19  0000              add [eax],al
00031A1B  0000              add [eax],al
00031A1D  0000              add [eax],al
00031A1F  0000              add [eax],al
00031A21  0000              add [eax],al
00031A23  0000              add [eax],al
00031A25  0000              add [eax],al
00031A27  0000              add [eax],al
00031A29  0000              add [eax],al
00031A2B  0000              add [eax],al
00031A2D  0000              add [eax],al
00031A2F  0000              add [eax],al
00031A31  0000              add [eax],al
00031A33  0000              add [eax],al
00031A35  0000              add [eax],al
00031A37  0000              add [eax],al
00031A39  0000              add [eax],al
00031A3B  0000              add [eax],al
00031A3D  0000              add [eax],al
00031A3F  0000              add [eax],al
00031A41  0000              add [eax],al
00031A43  0000              add [eax],al
00031A45  0000              add [eax],al
00031A47  0000              add [eax],al
00031A49  0000              add [eax],al
00031A4B  0000              add [eax],al
00031A4D  0000              add [eax],al
00031A4F  0000              add [eax],al
00031A51  0000              add [eax],al
00031A53  0000              add [eax],al
00031A55  0000              add [eax],al
00031A57  0000              add [eax],al
00031A59  0000              add [eax],al
00031A5B  0000              add [eax],al
00031A5D  0000              add [eax],al
00031A5F  0000              add [eax],al
00031A61  0000              add [eax],al
00031A63  0000              add [eax],al
00031A65  0000              add [eax],al
00031A67  0000              add [eax],al
00031A69  0000              add [eax],al
00031A6B  0000              add [eax],al
00031A6D  0000              add [eax],al
00031A6F  0000              add [eax],al
00031A71  0000              add [eax],al
00031A73  0000              add [eax],al
00031A75  0000              add [eax],al
00031A77  0000              add [eax],al
00031A79  0000              add [eax],al
00031A7B  0000              add [eax],al
00031A7D  0000              add [eax],al
00031A7F  0000              add [eax],al
00031A81  0000              add [eax],al
00031A83  0000              add [eax],al
00031A85  0000              add [eax],al
00031A87  0000              add [eax],al
00031A89  0000              add [eax],al
00031A8B  0000              add [eax],al
00031A8D  0000              add [eax],al
00031A8F  0000              add [eax],al
00031A91  0000              add [eax],al
00031A93  0000              add [eax],al
00031A95  0000              add [eax],al
00031A97  0000              add [eax],al
00031A99  0000              add [eax],al
00031A9B  0000              add [eax],al
00031A9D  0000              add [eax],al
00031A9F  0000              add [eax],al
00031AA1  0000              add [eax],al
00031AA3  0000              add [eax],al
00031AA5  0000              add [eax],al
00031AA7  0000              add [eax],al
00031AA9  0000              add [eax],al
00031AAB  0000              add [eax],al
00031AAD  0000              add [eax],al
00031AAF  0000              add [eax],al
00031AB1  0000              add [eax],al
00031AB3  0000              add [eax],al
00031AB5  0000              add [eax],al
00031AB7  0000              add [eax],al
00031AB9  0000              add [eax],al
00031ABB  0000              add [eax],al
00031ABD  0000              add [eax],al
00031ABF  0000              add [eax],al
00031AC1  0000              add [eax],al
00031AC3  0000              add [eax],al
00031AC5  0000              add [eax],al
00031AC7  0000              add [eax],al
00031AC9  0000              add [eax],al
00031ACB  0000              add [eax],al
00031ACD  0000              add [eax],al
00031ACF  0000              add [eax],al
00031AD1  0000              add [eax],al
00031AD3  0000              add [eax],al
00031AD5  0000              add [eax],al
00031AD7  0000              add [eax],al
00031AD9  0000              add [eax],al
00031ADB  0000              add [eax],al
00031ADD  0000              add [eax],al
00031ADF  0000              add [eax],al
00031AE1  0000              add [eax],al
00031AE3  0000              add [eax],al
00031AE5  0000              add [eax],al
00031AE7  0000              add [eax],al
00031AE9  0000              add [eax],al
00031AEB  0000              add [eax],al
00031AED  0000              add [eax],al
00031AEF  0000              add [eax],al
00031AF1  0000              add [eax],al
00031AF3  0000              add [eax],al
00031AF5  0000              add [eax],al
00031AF7  0000              add [eax],al
00031AF9  0000              add [eax],al
00031AFB  0000              add [eax],al
00031AFD  0000              add [eax],al
00031AFF  0000              add [eax],al
00031B01  0000              add [eax],al
00031B03  0000              add [eax],al
00031B05  0000              add [eax],al
00031B07  0000              add [eax],al
00031B09  0000              add [eax],al
00031B0B  0000              add [eax],al
00031B0D  0000              add [eax],al
00031B0F  0000              add [eax],al
00031B11  0000              add [eax],al
00031B13  0000              add [eax],al
00031B15  0000              add [eax],al
00031B17  0000              add [eax],al
00031B19  0000              add [eax],al
00031B1B  0000              add [eax],al
00031B1D  0000              add [eax],al
00031B1F  0000              add [eax],al
00031B21  0000              add [eax],al
00031B23  0000              add [eax],al
00031B25  0000              add [eax],al
00031B27  0000              add [eax],al
00031B29  0000              add [eax],al
00031B2B  0000              add [eax],al
00031B2D  0000              add [eax],al
00031B2F  0000              add [eax],al
00031B31  0000              add [eax],al
00031B33  0000              add [eax],al
00031B35  0000              add [eax],al
00031B37  0000              add [eax],al
00031B39  0000              add [eax],al
00031B3B  0000              add [eax],al
00031B3D  0000              add [eax],al
00031B3F  0000              add [eax],al
00031B41  0000              add [eax],al
00031B43  0000              add [eax],al
00031B45  0000              add [eax],al
00031B47  0000              add [eax],al
00031B49  0000              add [eax],al
00031B4B  0000              add [eax],al
00031B4D  0000              add [eax],al
00031B4F  0000              add [eax],al
00031B51  0000              add [eax],al
00031B53  0000              add [eax],al
00031B55  0000              add [eax],al
00031B57  0000              add [eax],al
00031B59  0000              add [eax],al
00031B5B  0000              add [eax],al
00031B5D  0000              add [eax],al
00031B5F  0000              add [eax],al
00031B61  0000              add [eax],al
00031B63  0000              add [eax],al
00031B65  0000              add [eax],al
00031B67  0000              add [eax],al
00031B69  0000              add [eax],al
00031B6B  0000              add [eax],al
00031B6D  0000              add [eax],al
00031B6F  0000              add [eax],al
00031B71  0000              add [eax],al
00031B73  0000              add [eax],al
00031B75  0000              add [eax],al
00031B77  0000              add [eax],al
00031B79  0000              add [eax],al
00031B7B  0000              add [eax],al
00031B7D  0000              add [eax],al
00031B7F  0000              add [eax],al
00031B81  0000              add [eax],al
00031B83  0000              add [eax],al
00031B85  0000              add [eax],al
00031B87  0000              add [eax],al
00031B89  0000              add [eax],al
00031B8B  0000              add [eax],al
00031B8D  0000              add [eax],al
00031B8F  0000              add [eax],al
00031B91  0000              add [eax],al
00031B93  0000              add [eax],al
00031B95  0000              add [eax],al
00031B97  0000              add [eax],al
00031B99  0000              add [eax],al
00031B9B  0000              add [eax],al
00031B9D  0000              add [eax],al
00031B9F  0000              add [eax],al
00031BA1  0000              add [eax],al
00031BA3  0000              add [eax],al
00031BA5  0000              add [eax],al
00031BA7  0000              add [eax],al
00031BA9  0000              add [eax],al
00031BAB  0000              add [eax],al
00031BAD  0000              add [eax],al
00031BAF  0000              add [eax],al
00031BB1  0000              add [eax],al
00031BB3  0000              add [eax],al
00031BB5  0000              add [eax],al
00031BB7  0000              add [eax],al
00031BB9  0000              add [eax],al
00031BBB  0000              add [eax],al
00031BBD  0000              add [eax],al
00031BBF  0000              add [eax],al
00031BC1  0000              add [eax],al
00031BC3  0000              add [eax],al
00031BC5  0000              add [eax],al
00031BC7  0000              add [eax],al
00031BC9  0000              add [eax],al
00031BCB  0000              add [eax],al
00031BCD  0000              add [eax],al
00031BCF  0000              add [eax],al
00031BD1  0000              add [eax],al
00031BD3  0000              add [eax],al
00031BD5  0000              add [eax],al
00031BD7  0000              add [eax],al
00031BD9  0000              add [eax],al
00031BDB  0000              add [eax],al
00031BDD  0000              add [eax],al
00031BDF  0000              add [eax],al
00031BE1  0000              add [eax],al
00031BE3  0000              add [eax],al
00031BE5  0000              add [eax],al
00031BE7  0000              add [eax],al
00031BE9  0000              add [eax],al
00031BEB  0000              add [eax],al
00031BED  0000              add [eax],al
00031BEF  0000              add [eax],al
00031BF1  0000              add [eax],al
00031BF3  0000              add [eax],al
00031BF5  0000              add [eax],al
00031BF7  0000              add [eax],al
00031BF9  0000              add [eax],al
00031BFB  0000              add [eax],al
00031BFD  0000              add [eax],al
00031BFF  0000              add [eax],al
00031C01  0000              add [eax],al
00031C03  0000              add [eax],al
00031C05  0000              add [eax],al
00031C07  0000              add [eax],al
00031C09  0000              add [eax],al
00031C0B  0000              add [eax],al
00031C0D  0000              add [eax],al
00031C0F  0000              add [eax],al
00031C11  0000              add [eax],al
00031C13  0000              add [eax],al
00031C15  0000              add [eax],al
00031C17  0000              add [eax],al
00031C19  0000              add [eax],al
00031C1B  0000              add [eax],al
00031C1D  0000              add [eax],al
00031C1F  0000              add [eax],al
00031C21  0000              add [eax],al
00031C23  0000              add [eax],al
00031C25  0000              add [eax],al
00031C27  0000              add [eax],al
00031C29  0000              add [eax],al
00031C2B  0000              add [eax],al
00031C2D  0000              add [eax],al
00031C2F  0000              add [eax],al
00031C31  0000              add [eax],al
00031C33  0000              add [eax],al
00031C35  0000              add [eax],al
00031C37  0000              add [eax],al
00031C39  0000              add [eax],al
00031C3B  0000              add [eax],al
00031C3D  0000              add [eax],al
00031C3F  0000              add [eax],al
00031C41  0000              add [eax],al
00031C43  0000              add [eax],al
00031C45  0000              add [eax],al
00031C47  0000              add [eax],al
00031C49  0000              add [eax],al
00031C4B  0000              add [eax],al
00031C4D  0000              add [eax],al
00031C4F  0000              add [eax],al
00031C51  0000              add [eax],al
00031C53  0000              add [eax],al
00031C55  0000              add [eax],al
00031C57  0000              add [eax],al
00031C59  0000              add [eax],al
00031C5B  0000              add [eax],al
00031C5D  0000              add [eax],al
00031C5F  0000              add [eax],al
00031C61  0000              add [eax],al
00031C63  0000              add [eax],al
00031C65  0000              add [eax],al
00031C67  0000              add [eax],al
00031C69  0000              add [eax],al
00031C6B  0000              add [eax],al
00031C6D  0000              add [eax],al
00031C6F  0000              add [eax],al
00031C71  0000              add [eax],al
00031C73  0000              add [eax],al
00031C75  0000              add [eax],al
00031C77  0000              add [eax],al
00031C79  0000              add [eax],al
00031C7B  0000              add [eax],al
00031C7D  0000              add [eax],al
00031C7F  0000              add [eax],al
00031C81  0000              add [eax],al
00031C83  0000              add [eax],al
00031C85  0000              add [eax],al
00031C87  0000              add [eax],al
00031C89  0000              add [eax],al
00031C8B  0000              add [eax],al
00031C8D  0000              add [eax],al
00031C8F  0000              add [eax],al
00031C91  0000              add [eax],al
00031C93  0000              add [eax],al
00031C95  0000              add [eax],al
00031C97  0000              add [eax],al
00031C99  0000              add [eax],al
00031C9B  0000              add [eax],al
00031C9D  0000              add [eax],al
00031C9F  0000              add [eax],al
00031CA1  0000              add [eax],al
00031CA3  0000              add [eax],al
00031CA5  0000              add [eax],al
00031CA7  0000              add [eax],al
00031CA9  0000              add [eax],al
00031CAB  0000              add [eax],al
00031CAD  0000              add [eax],al
00031CAF  0000              add [eax],al
00031CB1  0000              add [eax],al
00031CB3  0000              add [eax],al
00031CB5  0000              add [eax],al
00031CB7  0000              add [eax],al
00031CB9  0000              add [eax],al
00031CBB  0000              add [eax],al
00031CBD  0000              add [eax],al
00031CBF  0000              add [eax],al
00031CC1  0000              add [eax],al
00031CC3  0000              add [eax],al
00031CC5  0000              add [eax],al
00031CC7  0000              add [eax],al
00031CC9  0000              add [eax],al
00031CCB  0000              add [eax],al
00031CCD  0000              add [eax],al
00031CCF  0000              add [eax],al
00031CD1  0000              add [eax],al
00031CD3  0000              add [eax],al
00031CD5  0000              add [eax],al
00031CD7  0000              add [eax],al
00031CD9  0000              add [eax],al
00031CDB  0000              add [eax],al
00031CDD  0000              add [eax],al
00031CDF  0000              add [eax],al
00031CE1  0000              add [eax],al
00031CE3  0000              add [eax],al
00031CE5  0000              add [eax],al
00031CE7  0000              add [eax],al
00031CE9  0000              add [eax],al
00031CEB  0000              add [eax],al
00031CED  0000              add [eax],al
00031CEF  0000              add [eax],al
00031CF1  0000              add [eax],al
00031CF3  0000              add [eax],al
00031CF5  0000              add [eax],al
00031CF7  0000              add [eax],al
00031CF9  0000              add [eax],al
00031CFB  0000              add [eax],al
00031CFD  0000              add [eax],al
00031CFF  0000              add [eax],al
00031D01  0000              add [eax],al
00031D03  0000              add [eax],al
00031D05  0000              add [eax],al
00031D07  0000              add [eax],al
00031D09  0000              add [eax],al
00031D0B  0000              add [eax],al
00031D0D  0000              add [eax],al
00031D0F  0000              add [eax],al
00031D11  0000              add [eax],al
00031D13  0000              add [eax],al
00031D15  0000              add [eax],al
00031D17  0000              add [eax],al
00031D19  0000              add [eax],al
00031D1B  0000              add [eax],al
00031D1D  0000              add [eax],al
00031D1F  0000              add [eax],al
00031D21  0000              add [eax],al
00031D23  0000              add [eax],al
00031D25  0000              add [eax],al
00031D27  0000              add [eax],al
00031D29  0000              add [eax],al
00031D2B  0000              add [eax],al
00031D2D  0000              add [eax],al
00031D2F  0000              add [eax],al
00031D31  0000              add [eax],al
00031D33  0000              add [eax],al
00031D35  0000              add [eax],al
00031D37  0000              add [eax],al
00031D39  0000              add [eax],al
00031D3B  0000              add [eax],al
00031D3D  0000              add [eax],al
00031D3F  0000              add [eax],al
00031D41  0000              add [eax],al
00031D43  0000              add [eax],al
00031D45  0000              add [eax],al
00031D47  0000              add [eax],al
00031D49  0000              add [eax],al
00031D4B  0000              add [eax],al
00031D4D  0000              add [eax],al
00031D4F  0000              add [eax],al
00031D51  0000              add [eax],al
00031D53  0000              add [eax],al
00031D55  0000              add [eax],al
00031D57  0000              add [eax],al
00031D59  0000              add [eax],al
00031D5B  0000              add [eax],al
00031D5D  0000              add [eax],al
00031D5F  0000              add [eax],al
00031D61  0000              add [eax],al
00031D63  0000              add [eax],al
00031D65  0000              add [eax],al
00031D67  0000              add [eax],al
00031D69  0000              add [eax],al
00031D6B  0000              add [eax],al
00031D6D  0000              add [eax],al
00031D6F  0000              add [eax],al
00031D71  0000              add [eax],al
00031D73  0000              add [eax],al
00031D75  0000              add [eax],al
00031D77  0000              add [eax],al
00031D79  0000              add [eax],al
00031D7B  0000              add [eax],al
00031D7D  0000              add [eax],al
00031D7F  0000              add [eax],al
00031D81  0000              add [eax],al
00031D83  0000              add [eax],al
00031D85  0000              add [eax],al
00031D87  0000              add [eax],al
00031D89  0000              add [eax],al
00031D8B  0000              add [eax],al
00031D8D  0000              add [eax],al
00031D8F  0000              add [eax],al
00031D91  0000              add [eax],al
00031D93  0000              add [eax],al
00031D95  0000              add [eax],al
00031D97  0000              add [eax],al
00031D99  0000              add [eax],al
00031D9B  0000              add [eax],al
00031D9D  0000              add [eax],al
00031D9F  0000              add [eax],al
00031DA1  0000              add [eax],al
00031DA3  0000              add [eax],al
00031DA5  0000              add [eax],al
00031DA7  0000              add [eax],al
00031DA9  0000              add [eax],al
00031DAB  0000              add [eax],al
00031DAD  0000              add [eax],al
00031DAF  0000              add [eax],al
00031DB1  0000              add [eax],al
00031DB3  0000              add [eax],al
00031DB5  0000              add [eax],al
00031DB7  0000              add [eax],al
00031DB9  0000              add [eax],al
00031DBB  0000              add [eax],al
00031DBD  0000              add [eax],al
00031DBF  0000              add [eax],al
00031DC1  0000              add [eax],al
00031DC3  0000              add [eax],al
00031DC5  0000              add [eax],al
00031DC7  0000              add [eax],al
00031DC9  0000              add [eax],al
00031DCB  0000              add [eax],al
00031DCD  0000              add [eax],al
00031DCF  0000              add [eax],al
00031DD1  0000              add [eax],al
00031DD3  0000              add [eax],al
00031DD5  0000              add [eax],al
00031DD7  0000              add [eax],al
00031DD9  0000              add [eax],al
00031DDB  0000              add [eax],al
00031DDD  0000              add [eax],al
00031DDF  0000              add [eax],al
00031DE1  0000              add [eax],al
00031DE3  0000              add [eax],al
00031DE5  0000              add [eax],al
00031DE7  0000              add [eax],al
00031DE9  0000              add [eax],al
00031DEB  0000              add [eax],al
00031DED  0000              add [eax],al
00031DEF  0000              add [eax],al
00031DF1  0000              add [eax],al
00031DF3  0000              add [eax],al
00031DF5  0000              add [eax],al
00031DF7  0000              add [eax],al
00031DF9  0000              add [eax],al
00031DFB  0000              add [eax],al
00031DFD  0000              add [eax],al
00031DFF  0000              add [eax],al
00031E01  0000              add [eax],al
00031E03  0000              add [eax],al
00031E05  0000              add [eax],al
00031E07  0000              add [eax],al
00031E09  0000              add [eax],al
00031E0B  0000              add [eax],al
00031E0D  0000              add [eax],al
00031E0F  0000              add [eax],al
00031E11  0000              add [eax],al
00031E13  0000              add [eax],al
00031E15  0000              add [eax],al
00031E17  0000              add [eax],al
00031E19  0000              add [eax],al
00031E1B  0000              add [eax],al
00031E1D  0000              add [eax],al
00031E1F  0000              add [eax],al
00031E21  0000              add [eax],al
00031E23  0000              add [eax],al
00031E25  0000              add [eax],al
00031E27  0000              add [eax],al
00031E29  0000              add [eax],al
00031E2B  0000              add [eax],al
00031E2D  0000              add [eax],al
00031E2F  0000              add [eax],al
00031E31  0000              add [eax],al
00031E33  0000              add [eax],al
00031E35  0000              add [eax],al
00031E37  0000              add [eax],al
00031E39  0000              add [eax],al
00031E3B  0000              add [eax],al
00031E3D  0000              add [eax],al
00031E3F  0000              add [eax],al
00031E41  0000              add [eax],al
00031E43  0000              add [eax],al
00031E45  0000              add [eax],al
00031E47  0000              add [eax],al
00031E49  0000              add [eax],al
00031E4B  0000              add [eax],al
00031E4D  0000              add [eax],al
00031E4F  0000              add [eax],al
00031E51  0000              add [eax],al
00031E53  0000              add [eax],al
00031E55  0000              add [eax],al
00031E57  0000              add [eax],al
00031E59  0000              add [eax],al
00031E5B  0000              add [eax],al
00031E5D  0000              add [eax],al
00031E5F  0000              add [eax],al
00031E61  0000              add [eax],al
00031E63  0000              add [eax],al
00031E65  0000              add [eax],al
00031E67  0000              add [eax],al
00031E69  0000              add [eax],al
00031E6B  0000              add [eax],al
00031E6D  0000              add [eax],al
00031E6F  0000              add [eax],al
00031E71  0000              add [eax],al
00031E73  0000              add [eax],al
00031E75  0000              add [eax],al
00031E77  0000              add [eax],al
00031E79  0000              add [eax],al
00031E7B  0000              add [eax],al
00031E7D  0000              add [eax],al
00031E7F  0000              add [eax],al
00031E81  0000              add [eax],al
00031E83  0000              add [eax],al
00031E85  0000              add [eax],al
00031E87  0000              add [eax],al
00031E89  0000              add [eax],al
00031E8B  0000              add [eax],al
00031E8D  0000              add [eax],al
00031E8F  0000              add [eax],al
00031E91  0000              add [eax],al
00031E93  0000              add [eax],al
00031E95  0000              add [eax],al
00031E97  0000              add [eax],al
00031E99  0000              add [eax],al
00031E9B  0000              add [eax],al
00031E9D  0000              add [eax],al
00031E9F  0000              add [eax],al
00031EA1  0000              add [eax],al
00031EA3  0000              add [eax],al
00031EA5  0000              add [eax],al
00031EA7  0000              add [eax],al
00031EA9  0000              add [eax],al
00031EAB  0000              add [eax],al
00031EAD  0000              add [eax],al
00031EAF  0000              add [eax],al
00031EB1  0000              add [eax],al
00031EB3  0000              add [eax],al
00031EB5  0000              add [eax],al
00031EB7  0000              add [eax],al
00031EB9  0000              add [eax],al
00031EBB  0000              add [eax],al
00031EBD  0000              add [eax],al
00031EBF  0000              add [eax],al
00031EC1  0000              add [eax],al
00031EC3  0000              add [eax],al
00031EC5  0000              add [eax],al
00031EC7  0000              add [eax],al
00031EC9  0000              add [eax],al
00031ECB  0000              add [eax],al
00031ECD  0000              add [eax],al
00031ECF  0000              add [eax],al
00031ED1  0000              add [eax],al
00031ED3  0000              add [eax],al
00031ED5  0000              add [eax],al
00031ED7  0000              add [eax],al
00031ED9  0000              add [eax],al
00031EDB  0000              add [eax],al
00031EDD  0000              add [eax],al
00031EDF  0000              add [eax],al
00031EE1  0000              add [eax],al
00031EE3  0000              add [eax],al
00031EE5  0000              add [eax],al
00031EE7  0000              add [eax],al
00031EE9  0000              add [eax],al
00031EEB  0000              add [eax],al
00031EED  0000              add [eax],al
00031EEF  0000              add [eax],al
00031EF1  0000              add [eax],al
00031EF3  0000              add [eax],al
00031EF5  0000              add [eax],al
00031EF7  0000              add [eax],al
00031EF9  0000              add [eax],al
00031EFB  0000              add [eax],al
00031EFD  0000              add [eax],al
00031EFF  0000              add [eax],al
00031F01  0000              add [eax],al
00031F03  0000              add [eax],al
00031F05  0000              add [eax],al
00031F07  0000              add [eax],al
00031F09  0000              add [eax],al
00031F0B  0000              add [eax],al
00031F0D  0000              add [eax],al
00031F0F  0000              add [eax],al
00031F11  0000              add [eax],al
00031F13  0000              add [eax],al
00031F15  0000              add [eax],al
00031F17  0000              add [eax],al
00031F19  0000              add [eax],al
00031F1B  0000              add [eax],al
00031F1D  0000              add [eax],al
00031F1F  0000              add [eax],al
00031F21  0000              add [eax],al
00031F23  0000              add [eax],al
00031F25  0000              add [eax],al
00031F27  0000              add [eax],al
00031F29  0000              add [eax],al
00031F2B  0000              add [eax],al
00031F2D  0000              add [eax],al
00031F2F  0000              add [eax],al
00031F31  0000              add [eax],al
00031F33  0000              add [eax],al
00031F35  0000              add [eax],al
00031F37  0000              add [eax],al
00031F39  0000              add [eax],al
00031F3B  0000              add [eax],al
00031F3D  0000              add [eax],al
00031F3F  0000              add [eax],al
00031F41  0000              add [eax],al
00031F43  0000              add [eax],al
00031F45  0000              add [eax],al
00031F47  0000              add [eax],al
00031F49  0000              add [eax],al
00031F4B  0000              add [eax],al
00031F4D  0000              add [eax],al
00031F4F  0000              add [eax],al
00031F51  0000              add [eax],al
00031F53  0000              add [eax],al
00031F55  0000              add [eax],al
00031F57  0000              add [eax],al
00031F59  0000              add [eax],al
00031F5B  0000              add [eax],al
00031F5D  0000              add [eax],al
00031F5F  0000              add [eax],al
00031F61  0000              add [eax],al
00031F63  0000              add [eax],al
00031F65  0000              add [eax],al
00031F67  0000              add [eax],al
00031F69  0000              add [eax],al
00031F6B  0000              add [eax],al
00031F6D  0000              add [eax],al
00031F6F  0000              add [eax],al
00031F71  0000              add [eax],al
00031F73  0000              add [eax],al
00031F75  0000              add [eax],al
00031F77  0000              add [eax],al
00031F79  0000              add [eax],al
00031F7B  0000              add [eax],al
00031F7D  0000              add [eax],al
00031F7F  0000              add [eax],al
00031F81  0000              add [eax],al
00031F83  0000              add [eax],al
00031F85  0000              add [eax],al
00031F87  0000              add [eax],al
00031F89  0000              add [eax],al
00031F8B  0000              add [eax],al
00031F8D  0000              add [eax],al
00031F8F  0000              add [eax],al
00031F91  0000              add [eax],al
00031F93  0000              add [eax],al
00031F95  0000              add [eax],al
00031F97  0000              add [eax],al
00031F99  0000              add [eax],al
00031F9B  0000              add [eax],al
00031F9D  0000              add [eax],al
00031F9F  0000              add [eax],al
00031FA1  0000              add [eax],al
00031FA3  0000              add [eax],al
00031FA5  0000              add [eax],al
00031FA7  0000              add [eax],al
00031FA9  0000              add [eax],al
00031FAB  0000              add [eax],al
00031FAD  0000              add [eax],al
00031FAF  0000              add [eax],al
00031FB1  0000              add [eax],al
00031FB3  0000              add [eax],al
00031FB5  0000              add [eax],al
00031FB7  0000              add [eax],al
00031FB9  0000              add [eax],al
00031FBB  0000              add [eax],al
00031FBD  0000              add [eax],al
00031FBF  0000              add [eax],al
00031FC1  0000              add [eax],al
00031FC3  0000              add [eax],al
00031FC5  0000              add [eax],al
00031FC7  0000              add [eax],al
00031FC9  0000              add [eax],al
00031FCB  0000              add [eax],al
00031FCD  0000              add [eax],al
00031FCF  0000              add [eax],al
00031FD1  0000              add [eax],al
00031FD3  0000              add [eax],al
00031FD5  0000              add [eax],al
00031FD7  0000              add [eax],al
00031FD9  0000              add [eax],al
00031FDB  0000              add [eax],al
00031FDD  0000              add [eax],al
00031FDF  0000              add [eax],al
00031FE1  0000              add [eax],al
00031FE3  0000              add [eax],al
00031FE5  0000              add [eax],al
00031FE7  0000              add [eax],al
00031FE9  0000              add [eax],al
00031FEB  0000              add [eax],al
00031FED  0000              add [eax],al
00031FEF  0000              add [eax],al
00031FF1  0000              add [eax],al
00031FF3  0000              add [eax],al
00031FF5  0000              add [eax],al
00031FF7  0000              add [eax],al
00031FF9  0000              add [eax],al
00031FFB  0000              add [eax],al
00031FFD  0000              add [eax],al
00031FFF  0000              add [eax],al
00032001  0000              add [eax],al
00032003  0000              add [eax],al
00032005  0000              add [eax],al
00032007  0000              add [eax],al
00032009  0000              add [eax],al
0003200B  0000              add [eax],al
0003200D  0000              add [eax],al
0003200F  0000              add [eax],al
00032011  0000              add [eax],al
00032013  0000              add [eax],al
00032015  0000              add [eax],al
00032017  0000              add [eax],al
00032019  0000              add [eax],al
0003201B  0000              add [eax],al
0003201D  0000              add [eax],al
0003201F  004C1003          add [eax+edx+0x3],cl
00032023  005D10            add [ebp+0x10],bl
00032026  0300              add eax,[eax]
00032028  6A10              push byte +0x10
0003202A  0300              add eax,[eax]
0003202C  7910              jns 0x3203e
0003202E  0300              add eax,[eax]
00032030  8610              xchg dl,[eax]
00032032  0300              add eax,[eax]
00032034  A0100300C8        mov al,[0xc8000310]
00032039  1003              adc [ebx],al
0003203B  00F5              add ch,dh
0003203D  1003              adc [ebx],al
0003203F  0008              add [eax],cl
00032041  1103              adc [ebx],eax
00032043  0031              add [ecx],dh
00032045  1103              adc [ebx],eax
00032047  004111            add [ecx+0x11],al
0003204A  0300              add eax,[eax]
0003204C  59                pop ecx
0003204D  1103              adc [ebx],eax
0003204F  007111            add [ecx+0x11],dh
00032052  0300              add eax,[eax]
00032054  8811              mov [ecx],dl
00032056  0300              add eax,[eax]
00032058  98                cwde
00032059  1103              adc [ebx],eax
0003205B  00BC110300E911    add [ecx+edx+0x11e90003],bh
00032062  0300              add eax,[eax]
00032064  FD                std
00032065  1103              adc [ebx],eax
00032067  0010              add [eax],dl
00032069  1203              adc al,[ebx]
0003206B  005589            add [ebp-0x77],dl
0003206E  E58B              in eax,0x8b
00032070  7508              jnz 0x3207a
00032072  8B3D203D0300      mov edi,[dword 0x33d20]
00032078  B40F              mov ah,0xf
0003207A  AC                lodsb
0003207B  84C0              test al,al
0003207D  7423              jz 0x320a2
0003207F  3C0A              cmp al,0xa
00032081  7516              jnz 0x32099
00032083  50                push eax
00032084  89F8              mov eax,edi
00032086  B3A0              mov bl,0xa0
00032088  F6F3              div bl
0003208A  25FF000000        and eax,0xff
0003208F  40                inc eax
00032090  B3A0              mov bl,0xa0
00032092  F6E3              mul bl
00032094  89C7              mov edi,eax
00032096  58                pop eax
00032097  EBE1              jmp short 0x3207a
00032099  65668907          mov [gs:edi],ax
0003209D  83C702            add edi,byte +0x2
000320A0  EBD8              jmp short 0x3207a
000320A2  893D203D0300      mov [dword 0x33d20],edi
000320A8  5D                pop ebp
000320A9  C3                ret
000320AA  55                push ebp
000320AB  89E5              mov ebp,esp
000320AD  8B7508            mov esi,[ebp+0x8]
000320B0  8B3D203D0300      mov edi,[dword 0x33d20]
000320B6  8A650C            mov ah,[ebp+0xc]
000320B9  AC                lodsb
000320BA  84C0              test al,al
000320BC  7423              jz 0x320e1
000320BE  3C0A              cmp al,0xa
000320C0  7516              jnz 0x320d8
000320C2  50                push eax
000320C3  89F8              mov eax,edi
000320C5  B3A0              mov bl,0xa0
000320C7  F6F3              div bl
000320C9  25FF000000        and eax,0xff
000320CE  40                inc eax
000320CF  B3A0              mov bl,0xa0
000320D1  F6E3              mul bl
000320D3  89C7              mov edi,eax
000320D5  58                pop eax
000320D6  EBE1              jmp short 0x320b9
000320D8  65668907          mov [gs:edi],ax
000320DC  83C702            add edi,byte +0x2
000320DF  EBD8              jmp short 0x320b9
000320E1  893D203D0300      mov [dword 0x33d20],edi
000320E7  5D                pop ebp
000320E8  C3                ret
000320E9  8B542404          mov edx,[esp+0x4]
000320ED  8A442408          mov al,[esp+0x8]
000320F1  EE                out dx,al
000320F2  90                nop
000320F3  90                nop
000320F4  C3                ret
000320F5  8B542404          mov edx,[esp+0x4]
000320F9  31C0              xor eax,eax
000320FB  EC                in al,dx
000320FC  90                nop
000320FD  90                nop
000320FE  C3                ret
000320FF  47                inc edi
00032100  43                inc ebx
00032101  43                inc ebx
00032102  3A20              cmp ah,[eax]
00032104  285562            sub [ebp+0x62],dl
00032107  756E              jnz 0x32177
00032109  7475              jz 0x32180
0003210B  2039              and [ecx],bh
0003210D  2E332E            xor ebp,[cs:esi]
00032110  302D31377562      xor [dword 0x62753731],ch
00032116  756E              jnz 0x32186
00032118  7475              jz 0x3218f
0003211A  317E32            xor [esi+0x32],edi
0003211D  302E              xor [esi],ch
0003211F  303429            xor [ecx+ebp],dh
00032122  2039              and [ecx],bh
00032124  2E332E            xor ebp,[cs:esi]
00032127  3000              xor [eax],al
00032129  002E              add [esi],ch
0003212B  7368              jnc 0x32195
0003212D  7374              jnc 0x321a3
0003212F  7274              jc 0x321a5
00032131  61                popa
00032132  6200              bound eax,[eax]
00032134  2E7465            cs jz 0x3219c
00032137  7874              js 0x321ad
00032139  002E              add [esi],ch
0003213B  726F              jc 0x321ac
0003213D  6461              fs popa
0003213F  7461              jz 0x321a2
00032141  002E              add [esi],ch
00032143  65685F667261      gs push dword 0x6172665f
00032149  6D                insd
0003214A  65002E            add [gs:esi],ch
0003214D  676F              a16 outsd
0003214F  742E              jz 0x3217f
00032151  706C              jo 0x321bf
00032153  7400              jz 0x32155
00032155  2E6461            fs popa
00032158  7461              jz 0x321bb
0003215A  002E              add [esi],ch
0003215C  627373            bound esi,[ebx+0x73]
0003215F  002E              add [esi],ch
00032161  636F6D            arpl [edi+0x6d],bp
00032164  6D                insd
00032165  656E              gs outsb
00032167  7400              jz 0x32169
00032169  0000              add [eax],al
0003216B  0000              add [eax],al
0003216D  0000              add [eax],al
0003216F  0000              add [eax],al
00032171  0000              add [eax],al
00032173  0000              add [eax],al
00032175  0000              add [eax],al
00032177  0000              add [eax],al
00032179  0000              add [eax],al
0003217B  0000              add [eax],al
0003217D  0000              add [eax],al
0003217F  0000              add [eax],al
00032181  0000              add [eax],al
00032183  0000              add [eax],al
00032185  0000              add [eax],al
00032187  0000              add [eax],al
00032189  0000              add [eax],al
0003218B  0000              add [eax],al
0003218D  0000              add [eax],al
0003218F  0000              add [eax],al
00032191  0000              add [eax],al
00032193  000B              add [ebx],cl
00032195  0000              add [eax],al
00032197  0001              add [ecx],al
00032199  0000              add [eax],al
0003219B  0006              add [esi],al
0003219D  0000              add [eax],al
0003219F  0000              add [eax],al
000321A1  0403              add al,0x3
000321A3  0000              add [eax],al
000321A5  0400              add al,0x0
000321A7  005906            add [ecx+0x6],bl
000321AA  0000              add [eax],al
000321AC  0000              add [eax],al
000321AE  0000              add [eax],al
000321B0  0000              add [eax],al
000321B2  0000              add [eax],al
000321B4  1000              adc [eax],al
000321B6  0000              add [eax],al
000321B8  0000              add [eax],al
000321BA  0000              add [eax],al
000321BC  1100              adc [eax],eax
000321BE  0000              add [eax],al
000321C0  0100              add [eax],eax
000321C2  0000              add [eax],al
000321C4  0200              add al,[eax]
000321C6  0000              add [eax],al
000321C8  0010              add [eax],dl
000321CA  0300              add eax,[eax]
000321CC  0010              add [eax],dl
000321CE  0000              add [eax],al
000321D0  5B                pop ebx
000321D1  0200              add al,[eax]
000321D3  0000              add [eax],al
000321D5  0000              add [eax],al
000321D7  0000              add [eax],al
000321D9  0000              add [eax],al
000321DB  000400            add [eax+eax],al
000321DE  0000              add [eax],al
000321E0  0000              add [eax],al
000321E2  0000              add [eax],al
000321E4  1900              sbb [eax],eax
000321E6  0000              add [eax],al
000321E8  0100              add [eax],eax
000321EA  0000              add [eax],al
000321EC  0200              add al,[eax]
000321EE  0000              add [eax],al
000321F0  5C                pop esp
000321F1  1203              adc al,[ebx]
000321F3  005C1200          add [edx+edx+0x0],bl
000321F7  004001            add [eax+0x1],al
000321FA  0000              add [eax],al
000321FC  0000              add [eax],al
000321FE  0000              add [eax],al
00032200  0000              add [eax],al
00032202  0000              add [eax],al
00032204  0400              add al,0x0
00032206  0000              add [eax],al
00032208  0000              add [eax],al
0003220A  0000              add [eax],al
0003220C  2300              and eax,[eax]
0003220E  0000              add [eax],al
00032210  0100              add [eax],eax
00032212  0000              add [eax],al
00032214  0300              add eax,[eax]
00032216  0000              add [eax],al
00032218  0030              add [eax],dh
0003221A  0300              add eax,[eax]
0003221C  0020              add [eax],ah
0003221E  0000              add [eax],al
00032220  0C00              or al,0x0
00032222  0000              add [eax],al
00032224  0000              add [eax],al
00032226  0000              add [eax],al
00032228  0000              add [eax],al
0003222A  0000              add [eax],al
0003222C  0400              add al,0x0
0003222E  0000              add [eax],al
00032230  0400              add al,0x0
00032232  0000              add [eax],al
00032234  2C00              sub al,0x0
00032236  0000              add [eax],al
00032238  0100              add [eax],eax
0003223A  0000              add [eax],al
0003223C  0300              add eax,[eax]
0003223E  0000              add [eax],al
00032240  2030              and [eax],dh
00032242  0300              add eax,[eax]
00032244  2020              and [eax],ah
00032246  0000              add [eax],al
00032248  DF00              fild word [eax]
0003224A  0000              add [eax],al
0003224C  0000              add [eax],al
0003224E  0000              add [eax],al
00032250  0000              add [eax],al
00032252  0000              add [eax],al
00032254  2000              and [eax],al
00032256  0000              add [eax],al
00032258  0000              add [eax],al
0003225A  0000              add [eax],al
0003225C  3200              xor al,[eax]
0003225E  0000              add [eax],al
00032260  0800              or [eax],al
00032262  0000              add [eax],al
00032264  0300              add eax,[eax]
00032266  0000              add [eax],al
00032268  0031              add [ecx],dh
0003226A  0300              add eax,[eax]
0003226C  FF20              jmp [eax]
0003226E  0000              add [eax],al
00032270  40                inc eax
00032271  1400              adc al,0x0
00032273  0000              add [eax],al
00032275  0000              add [eax],al
00032277  0000              add [eax],al
00032279  0000              add [eax],al
0003227B  0020              add [eax],ah
0003227D  0000              add [eax],al
0003227F  0000              add [eax],al
00032281  0000              add [eax],al
00032283  0037              add [edi],dh
00032285  0000              add [eax],al
00032287  0001              add [ecx],al
00032289  0000              add [eax],al
0003228B  0030              add [eax],dh
0003228D  0000              add [eax],al
0003228F  0000              add [eax],al
00032291  0000              add [eax],al
00032293  00FF              add bh,bh
00032295  2000              and [eax],al
00032297  002A              add [edx],ch
00032299  0000              add [eax],al
0003229B  0000              add [eax],al
0003229D  0000              add [eax],al
0003229F  0000              add [eax],al
000322A1  0000              add [eax],al
000322A3  0001              add [ecx],al
000322A5  0000              add [eax],al
000322A7  0001              add [ecx],al
000322A9  0000              add [eax],al
000322AB  0001              add [ecx],al
000322AD  0000              add [eax],al
000322AF  0003              add [ebx],al
000322B1  0000              add [eax],al
000322B3  0000              add [eax],al
000322B5  0000              add [eax],al
000322B7  0000              add [eax],al
000322B9  0000              add [eax],al
000322BB  0029              add [ecx],ch
000322BD  2100              and [eax],eax
000322BF  004000            add [eax+0x0],al
000322C2  0000              add [eax],al
000322C4  0000              add [eax],al
000322C6  0000              add [eax],al
000322C8  0000              add [eax],al
000322CA  0000              add [eax],al
000322CC  0100              add [eax],eax
000322CE  0000              add [eax],al
000322D0  0000              add [eax],al
000322D2  0000              add [eax],al
